PARTICIPANT_ID	TEST_SECTION_ID	SENTENCE	USER_INPUT	KEYSTROKE_ID	PRESS_TIME	RELEASE_TIME	LETTER	KEYCODE
100122	1092403	This event will be a blast.	This event will be a blast. 	51959394	1473276028961	1473276029164	SHIFT	16
100122	1092403	This event will be a blast.	This event will be a blast. 	51959396	1473276029164	1473276029294	t	84
100122	1092403	This event will be a blast.	This event will be a blast. 	51959398	1473276029280	1473276029348	h	72
100122	1092403	This event will be a blast.	This event will be a blast. 	51959401	1473276029613	1473276029761	i	73
100122	1092403	This event will be a blast.	This event will be a blast. 	51959404	1473276029823	1473276029961	s	83
100122	1092403	This event will be a blast.	This event will be a blast. 	51959407	1473276030238	1473276030300	BKSP	8
100122	1092403	This event will be a blast.	This event will be a blast. 	51959411	1473276030394	1473276030444	BKSP	8
100122	1092403	This event will be a blast.	This event will be a blast. 	51959415	1473276030513	1473276030564	BKSP	8
100122	1092403	This event will be a blast.	This event will be a blast. 	51959418	1473276030628	1473276030682	BKSP	8
100122	1092403	This event will be a blast.	This event will be a blast. 	51959421	1473276030925	1473276031050	SHIFT	16
100122	1092403	This event will be a blast.	This event will be a blast. 	51959425	1473276031050	1473276031177	t	84
100122	1092403	This event will be a blast.	This event will be a blast. 	51959440	1473276031220	1473276031437	h	72
100122	1092403	This event will be a blast.	This event will be a blast. 	51959444	1473276031468	1473276031594	s	83
100122	1092403	This event will be a blast.	This event will be a blast. 	51959447	1473276031782	1473276031833	BKSP	8
100122	1092403	This event will be a blast.	This event will be a blast. 	51959452	1473276031911	1473276031956	BKSP	8
100122	1092403	This event will be a blast.	This event will be a blast. 	51959458	1473276032043	1473276032100	BKSP	8
100122	1092403	This event will be a blast.	This event will be a blast. 	51959461	1473276032413	1473276032612	SHIFT	16
100122	1092403	This event will be a blast.	This event will be a blast. 	51959464	1473276032564	1473276032662	T	84
100122	1092403	This event will be a blast.	This event will be a blast. 	51959466	1473276032787	1473276032915	h	72
100122	1092403	This event will be a blast.	This event will be a blast. 	51959554	1473276032863	1473276033004	i	73
100122	1092403	This event will be a blast.	This event will be a blast. 	51959559	1473276033004	1473276033112	s	83
100122	1092403	This event will be a blast.	This event will be a blast. 	51959563	1473276033127	1473276033245	 	32
100122	1092403	This event will be a blast.	This event will be a blast. 	51959570	1473276033291	1473276033397	e	69
100122	1092403	This event will be a blast.	This event will be a blast. 	51959575	1473276033584	1473276033758	e	69
100122	1092403	This event will be a blast.	This event will be a blast. 	51959578	1473276033758	1473276033878	n	78
100122	1092403	This event will be a blast.	This event will be a blast. 	51959592	1473276034141	1473276034180	BKSP	8
100122	1092403	This event will be a blast.	This event will be a blast. 	51959594	1473276034247	1473276034316	BKSP	8
100122	1092403	This event will be a blast.	This event will be a blast. 	51959597	1473276034441	1473276034564	v	86
100122	1092403	This event will be a blast.	This event will be a blast. 	51959599	1473276034515	1473276034684	e	69
100122	1092403	This event will be a blast.	This event will be a blast. 	51959603	1473276034660	1473276034779	n	78
100122	1092403	This event will be a blast.	This event will be a blast. 	51959605	1473276034825	1473276034866	t	84
100122	1092403	This event will be a blast.	This event will be a blast. 	51959608	1473276034913	1473276034996	 	32
100122	1092403	This event will be a blast.	This event will be a blast. 	51959709	1473276035147	1473276035324	w	87
100122	1092403	This event will be a blast.	This event will be a blast. 	51959710	1473276035454	1473276035563	i	73
100122	1092403	This event will be a blast.	This event will be a blast. 	51959713	1473276036110	1473276036194	l	76
100122	1092403	This event will be a blast.	This event will be a blast. 	51959714	1473276036273	1473276036329	l	76
100122	1092403	This event will be a blast.	This event will be a blast. 	51959715	1473276036563	1473276036646	 	32
100122	1092403	This event will be a blast.	This event will be a blast. 	51959769	1473276036771	1473276036876	b	66
100122	1092403	This event will be a blast.	This event will be a blast. 	51959774	1473276036876	1473276036993	e	69
100122	1092403	This event will be a blast.	This event will be a blast. 	51959777	1473276037024	1473276037096	 	32
100122	1092403	This event will be a blast.	This event will be a blast. 	51959781	1473276037187	1473276037313	a	65
100122	1092403	This event will be a blast.	This event will be a blast. 	51959829	1473276037263	1473276037340	 	32
100122	1092403	This event will be a blast.	This event will be a blast. 	51959833	1473276037449	1473276037591	b	66
100122	1092403	This event will be a blast.	This event will be a blast. 	51959836	1473276037606	1473276037758	l	76
100122	1092403	This event will be a blast.	This event will be a blast. 	51959838	1473276037758	1473276037978	a	65
100122	1092403	This event will be a blast.	This event will be a blast. 	51959841	1473276037938	1473276038169	s	83
100122	1092403	This event will be a blast.	This event will be a blast. 	51959844	1473276038231	1473276038317	t	84
100122	1092403	This event will be a blast.	This event will be a blast. 	51960048	1473276038375	1473276038447	 	32
100122	1092403	This event will be a blast.	This event will be a blast. 	51960051	1473276038939	1473276039027	BKSP	8
100122	1092403	This event will be a blast.	This event will be a blast. 	51960054	1473276039214	1473276039327	.	190
100122	1092403	This event will be a blast.	This event will be a blast. 	51960058	1473276039436	1473276039497	 	32
100122	1092433	We are delayed, got another 30 minutes on the runway.	We are delayed, got another 30 minutes on the runway. 	51960544	1473276049098	1473276049386	SHIFT	16
100122	1092433	We are delayed, got another 30 minutes on the runway.	We are delayed, got another 30 minutes on the runway. 	51960552	1473276049332	1473276049527	W	87
100122	1092433	We are delayed, got another 30 minutes on the runway.	We are delayed, got another 30 minutes on the runway. 	51960557	1473276049444	1473276049621	e	69
100122	1092433	We are delayed, got another 30 minutes on the runway.	We are delayed, got another 30 minutes on the runway. 	51960563	1473276049887	1473276049993	 	32
100122	1092433	We are delayed, got another 30 minutes on the runway.	We are delayed, got another 30 minutes on the runway. 	51960568	1473276050039	1473276050220	a	65
100122	1092433	We are delayed, got another 30 minutes on the runway.	We are delayed, got another 30 minutes on the runway. 	51960574	1473276050220	1473276050414	r	82
100122	1092433	We are delayed, got another 30 minutes on the runway.	We are delayed, got another 30 minutes on the runway. 	51960753	1473276050358	1473276050524	e	69
100122	1092433	We are delayed, got another 30 minutes on the runway.	We are delayed, got another 30 minutes on the runway. 	51960756	1473276050774	1473276050892	 	32
100122	1092433	We are delayed, got another 30 minutes on the runway.	We are delayed, got another 30 minutes on the runway. 	51960760	1473276051282	1473276051479	d	68
100122	1092433	We are delayed, got another 30 minutes on the runway.	We are delayed, got another 30 minutes on the runway. 	51960768	1473276051408	1473276051557	e	69
100122	1092433	We are delayed, got another 30 minutes on the runway.	We are delayed, got another 30 minutes on the runway. 	51960773	1473276052010	1473276052126	k	75
100122	1092433	We are delayed, got another 30 minutes on the runway.	We are delayed, got another 30 minutes on the runway. 	51960779	1473276052251	1473276052390	a	65
100122	1092433	We are delayed, got another 30 minutes on the runway.	We are delayed, got another 30 minutes on the runway. 	51960886	1473276052390	1473276052463	y	89
100122	1092433	We are delayed, got another 30 minutes on the runway.	We are delayed, got another 30 minutes on the runway. 	51960889	1473276052666	1473276052714	BKSP	8
100122	1092433	We are delayed, got another 30 minutes on the runway.	We are delayed, got another 30 minutes on the runway. 	51960892	1473276052808	1473276052858	BKSP	8
100122	1092433	We are delayed, got another 30 minutes on the runway.	We are delayed, got another 30 minutes on the runway. 	51960897	1473276053160	1473276053213	BKSP	8
100122	1092433	We are delayed, got another 30 minutes on the runway.	We are delayed, got another 30 minutes on the runway. 	51960902	1473276053588	1473276053716	l	76
100122	1092433	We are delayed, got another 30 minutes on the runway.	We are delayed, got another 30 minutes on the runway. 	51960907	1473276053763	1473276053891	a	65
100122	1092433	We are delayed, got another 30 minutes on the runway.	We are delayed, got another 30 minutes on the runway. 	51960911	1473276053891	1473276053962	y	89
100122	1092433	We are delayed, got another 30 minutes on the runway.	We are delayed, got another 30 minutes on the runway. 	51960914	1473276054181	1473276054261	e	69
100122	1092433	We are delayed, got another 30 minutes on the runway.	We are delayed, got another 30 minutes on the runway. 	51961058	1473276054385	1473276054493	d	68
100122	1092433	We are delayed, got another 30 minutes on the runway.	We are delayed, got another 30 minutes on the runway. 	51961062	1473276054540	1473276054627	 	32
100122	1092433	We are delayed, got another 30 minutes on the runway.	We are delayed, got another 30 minutes on the runway. 	51961066	1473276054943	1473276054997	BKSP	8
100122	1092433	We are delayed, got another 30 minutes on the runway.	We are delayed, got another 30 minutes on the runway. 	51961067	1473276055623	1473276055696	,	188
100122	1092433	We are delayed, got another 30 minutes on the runway.	We are delayed, got another 30 minutes on the runway. 	51961069	1473276055805	1473276055893	 	32
100122	1092433	We are delayed, got another 30 minutes on the runway.	We are delayed, got another 30 minutes on the runway. 	51961070	1473276055971	1473276056090	g	71
100122	1092433	We are delayed, got another 30 minutes on the runway.	We are delayed, got another 30 minutes on the runway. 	51961138	1473276056029	1473276056132	o	79
100122	1092433	We are delayed, got another 30 minutes on the runway.	We are delayed, got another 30 minutes on the runway. 	51961141	1473276056178	1473276056260	t	84
100122	1092433	We are delayed, got another 30 minutes on the runway.	We are delayed, got another 30 minutes on the runway. 	51961146	1473276056307	1473276056425	 	32
100122	1092433	We are delayed, got another 30 minutes on the runway.	We are delayed, got another 30 minutes on the runway. 	51961157	1473276056534	1473276056642	a	65
100122	1092433	We are delayed, got another 30 minutes on the runway.	We are delayed, got another 30 minutes on the runway. 	51961166	1473276056642	1473276056759	n	78
100122	1092433	We are delayed, got another 30 minutes on the runway.	We are delayed, got another 30 minutes on the runway. 	51961179	1473276056774	1473276056939	o	79
100122	1092433	We are delayed, got another 30 minutes on the runway.	We are delayed, got another 30 minutes on the runway. 	51961241	1473276056965	1473276057075	t	84
100122	1092433	We are delayed, got another 30 minutes on the runway.	We are delayed, got another 30 minutes on the runway. 	51961245	1473276057075	1473276057176	h	72
100122	1092433	We are delayed, got another 30 minutes on the runway.	We are delayed, got another 30 minutes on the runway. 	51961252	1473276057192	1473276057362	e	69
100122	1092433	We are delayed, got another 30 minutes on the runway.	We are delayed, got another 30 minutes on the runway. 	51961259	1473276057309	1473276057440	r	82
100122	1092433	We are delayed, got another 30 minutes on the runway.	We are delayed, got another 30 minutes on the runway. 	51961264	1473276057628	1473276057726	 	32
100122	1092433	We are delayed, got another 30 minutes on the runway.	We are delayed, got another 30 minutes on the runway. 	51961397	1473276058309	1473276058498	3	99
100122	1092433	We are delayed, got another 30 minutes on the runway.	We are delayed, got another 30 minutes on the runway. 	51961402	1473276058457	1473276058559	0	96
100122	1092433	We are delayed, got another 30 minutes on the runway.	We are delayed, got another 30 minutes on the runway. 	51961410	1473276058793	1473276058893	 	32
100122	1092433	We are delayed, got another 30 minutes on the runway.	We are delayed, got another 30 minutes on the runway. 	51961418	1473276058987	1473276059130	m	77
100122	1092433	We are delayed, got another 30 minutes on the runway.	We are delayed, got another 30 minutes on the runway. 	51961419	1473276059093	1473276059241	i	73
100122	1092433	We are delayed, got another 30 minutes on the runway.	We are delayed, got another 30 minutes on the runway. 	51961425	1473276059288	1473276059434	n	78
100122	1092433	We are delayed, got another 30 minutes on the runway.	We are delayed, got another 30 minutes on the runway. 	51961434	1473276059411	1473276059509	u	85
100122	1092433	We are delayed, got another 30 minutes on the runway.	We are delayed, got another 30 minutes on the runway. 	51961441	1473276059509	1473276059640	t	84
100122	1092433	We are delayed, got another 30 minutes on the runway.	We are delayed, got another 30 minutes on the runway. 	51961448	1473276059640	1473276059729	e	69
100122	1092433	We are delayed, got another 30 minutes on the runway.	We are delayed, got another 30 minutes on the runway. 	51961454	1473276059822	1473276059957	s	83
100122	1092433	We are delayed, got another 30 minutes on the runway.	We are delayed, got another 30 minutes on the runway. 	51961443	1473276060061	1473276060143	 	32
100122	1092433	We are delayed, got another 30 minutes on the runway.	We are delayed, got another 30 minutes on the runway. 	51961447	1473276060268	1473276060361	i	79
100122	1092433	We are delayed, got another 30 minutes on the runway.	We are delayed, got another 30 minutes on the runway. 	51961457	1473276060736	1473276060796	BKSP	8
100122	1092433	We are delayed, got another 30 minutes on the runway.	We are delayed, got another 30 minutes on the runway. 	51961463	1473276061031	1473276061126	n	78
100122	1092433	We are delayed, got another 30 minutes on the runway.	We are delayed, got another 30 minutes on the runway. 	51961468	1473276061293	1473276061377	 	32
100122	1092433	We are delayed, got another 30 minutes on the runway.	We are delayed, got another 30 minutes on the runway. 	51961714	1473276061403	1473276061494	t	84
100122	1092433	We are delayed, got another 30 minutes on the runway.	We are delayed, got another 30 minutes on the runway. 	51961720	1473276061682	1473276061777	e	69
100122	1092433	We are delayed, got another 30 minutes on the runway.	We are delayed, got another 30 minutes on the runway. 	51961727	1473276062074	1473276062122	=	187
100122	1092433	We are delayed, got another 30 minutes on the runway.	We are delayed, got another 30 minutes on the runway. 	51961734	1473276062505	1473276062562	BKSP	8
100122	1092433	We are delayed, got another 30 minutes on the runway.	We are delayed, got another 30 minutes on the runway. 	51961745	1473276062656	1473276062728	BKSP	8
100122	1092433	We are delayed, got another 30 minutes on the runway.	We are delayed, got another 30 minutes on the runway. 	51961752	1473276063308	1473276063425	h	72
100122	1092433	We are delayed, got another 30 minutes on the runway.	We are delayed, got another 30 minutes on the runway. 	51961758	1473276063456	1473276063560	e	69
100122	1092433	We are delayed, got another 30 minutes on the runway.	We are delayed, got another 30 minutes on the runway. 	51961728	1473276063560	1473276063644	 	32
100122	1092433	We are delayed, got another 30 minutes on the runway.	We are delayed, got another 30 minutes on the runway. 	51961735	1473276063956	1473276064045	r	82
100122	1092433	We are delayed, got another 30 minutes on the runway.	We are delayed, got another 30 minutes on the runway. 	51961743	1473276064045	1473276064196	u	85
100122	1092433	We are delayed, got another 30 minutes on the runway.	We are delayed, got another 30 minutes on the runway. 	51961750	1473276064134	1473276064259	n	78
100122	1092433	We are delayed, got another 30 minutes on the runway.	We are delayed, got another 30 minutes on the runway. 	51961756	1473276064431	1473276064511	w	87
100122	1092433	We are delayed, got another 30 minutes on the runway.	We are delayed, got another 30 minutes on the runway. 	51962083	1473276064631	1473276064746	a	65
100122	1092433	We are delayed, got another 30 minutes on the runway.	We are delayed, got another 30 minutes on the runway. 	51962087	1473276064711	1473276064825	y	89
100122	1092433	We are delayed, got another 30 minutes on the runway.	We are delayed, got another 30 minutes on the runway. 	51962093	1473276065028	1473276065096	.	190
100122	1092433	We are delayed, got another 30 minutes on the runway.	We are delayed, got another 30 minutes on the runway. 	51962100	1473276065502	1473276065593	 	32
100122	1092478	Can you help get this cleared up?	Can you help get this cleared up?	51962854	1473276075914	1473276076118	SHIFT	16
100122	1092478	Can you help get this cleared up?	Can you help get this cleared up?	51962852	1473276075961	1473276076071	CTRL	17
100122	1092478	Can you help get this cleared up?	Can you help get this cleared up?	51962855	1473276076202	1473276076596	SHIFT	16
100122	1092478	Can you help get this cleared up?	Can you help get this cleared up?	51962857	1473276076525	1473276076705	C	67
100122	1092478	Can you help get this cleared up?	Can you help get this cleared up?	51962860	1473276076705	1473276076825	a	65
100122	1092478	Can you help get this cleared up?	Can you help get this cleared up?	51962864	1473276076919	1473276077026	n	78
100122	1092478	Can you help get this cleared up?	Can you help get this cleared up?	51962869	1473276077291	1473276077392	 	32
100122	1092478	Can you help get this cleared up?	Can you help get this cleared up?	51962875	1473276077798	1473276077909	y	89
100122	1092478	Can you help get this cleared up?	Can you help get this cleared up?	51962898	1473276077909	1473276078075	o	79
100122	1092478	Can you help get this cleared up?	Can you help get this cleared up?	51962901	1473276078025	1473276078157	u	85
100122	1092478	Can you help get this cleared up?	Can you help get this cleared up?	51962905	1473276078157	1473276078260	 	32
100122	1092478	Can you help get this cleared up?	Can you help get this cleared up?	51962908	1473276078338	1473276078443	h	72
100122	1092478	Can you help get this cleared up?	Can you help get this cleared up?	51962914	1473276078443	1473276078559	e	69
100122	1092478	Can you help get this cleared up?	Can you help get this cleared up?	51963028	1473276078570	1473276078660	l	76
100122	1092478	Can you help get this cleared up?	Can you help get this cleared up?	51963037	1473276078832	1473276078896	o	79
100122	1092478	Can you help get this cleared up?	Can you help get this cleared up?	51963044	1473276079411	1473276079477	BKSP	8
100122	1092478	Can you help get this cleared up?	Can you help get this cleared up?	51963052	1473276079978	1473276080044	p	80
100122	1092478	Can you help get this cleared up?	Can you help get this cleared up?	51963056	1473276080169	1473276080261	 	32
100122	1092478	Can you help get this cleared up?	Can you help get this cleared up?	51963061	1473276081436	1473276081543	g	71
100122	1092478	Can you help get this cleared up?	Can you help get this cleared up?	51963137	1473276081543	1473276081763	e	69
100122	1092478	Can you help get this cleared up?	Can you help get this cleared up?	51963138	1473276081721	1473276081872	t	84
100122	1092478	Can you help get this cleared up?	Can you help get this cleared up?	51963140	1473276081935	1473276081986	 	32
100122	1092478	Can you help get this cleared up?	Can you help get this cleared up?	51963143	1473276082214	1473276082324	t	84
100122	1092478	Can you help get this cleared up?	Can you help get this cleared up?	51963149	1473276082324	1473276082512	h	72
100122	1092478	Can you help get this cleared up?	Can you help get this cleared up?	51963241	1473276082467	1473276082617	i	73
100122	1092478	Can you help get this cleared up?	Can you help get this cleared up?	51963247	1473276082617	1473276082758	s	83
100122	1092478	Can you help get this cleared up?	Can you help get this cleared up?	51963254	1473276082836	1473276082958	 	32
100122	1092478	Can you help get this cleared up?	Can you help get this cleared up?	51963263	1473276083176	1473276083425	c	67
100122	1092478	Can you help get this cleared up?	Can you help get this cleared up?	51963259	1473276083323	1473276083394	l	76
100122	1092478	Can you help get this cleared up?	Can you help get this cleared up?	51963266	1473276083425	1473276083610	e	69
100122	1092478	Can you help get this cleared up?	Can you help get this cleared up?	51963314	1473276083526	1473276083770	a	65
100122	1092478	Can you help get this cleared up?	Can you help get this cleared up?	51963316	1473276083730	1473276083888	r	82
100122	1092478	Can you help get this cleared up?	Can you help get this cleared up?	51963320	1473276083888	1473276083976	u	85
100122	1092478	Can you help get this cleared up?	Can you help get this cleared up?	51963325	1473276084371	1473276084426	BKSP	8
100122	1092478	Can you help get this cleared up?	Can you help get this cleared up?	51963328	1473276084569	1473276084644	e	69
100122	1092478	Can you help get this cleared up?	Can you help get this cleared up?	51963332	1473276084753	1473276084858	d	68
100122	1092478	Can you help get this cleared up?	Can you help get this cleared up?	51963335	1473276084941	1473276085042	 	32
100122	1092478	Can you help get this cleared up?	Can you help get this cleared up?	51963447	1473276085178	1473276085396	u	85
100122	1092478	Can you help get this cleared up?	Can you help get this cleared up?	51963451	1473276085353	1473276085427	o	79
100122	1092478	Can you help get this cleared up?	Can you help get this cleared up?	51963457	1473276085881	1473276085944	BKSP	8
100122	1092478	Can you help get this cleared up?	Can you help get this cleared up?	51963462	1473276086381	1473276086444	p	80
100122	1092478	Can you help get this cleared up?	Can you help get this cleared up?	51963466	1473276086631	1473276086874	SHIFT	16
100122	1092478	Can you help get this cleared up?	Can you help get this cleared up?	51963473	1473276086756	1473276086874	É	191
100122	1092478	Can you help get this cleared up?	Can you help get this cleared up?	51963481	1473276087927	1473276088011	BKSP	8
100122	1092478	Can you help get this cleared up?	Can you help get this cleared up?	51963819	1473276088355	1473276088901	SHIFT	16
100122	1092478	Can you help get this cleared up?	Can you help get this cleared up?	51963488	1473276088528	1473276088625	É	191
100122	1092478	Can you help get this cleared up?	Can you help get this cleared up?	51963825	1473276089082	1473276089175	BKSP	8
100122	1092478	Can you help get this cleared up?	Can you help get this cleared up?	51963840	1473276089658	1473276090653	SHIFT	16
100122	1092478	Can you help get this cleared up?	Can you help get this cleared up?	51963833	1473276090476	1473276090544	?	54
100122	1092515	I plan to be in the office tomorrow.	I plan to be in the office tomorrow.	51964097	1473276094990	1473276095442	SHIFT	16
100122	1092515	I plan to be in the office tomorrow.	I plan to be in the office tomorrow.	51964102	1473276095366	1473276095476	I	73
100122	1092515	I plan to be in the office tomorrow.	I plan to be in the office tomorrow.	51964110	1473276095601	1473276095709	 	32
100122	1092515	I plan to be in the office tomorrow.	I plan to be in the office tomorrow.	51964116	1473276095756	1473276095945	p	80
100122	1092515	I plan to be in the office tomorrow.	I plan to be in the office tomorrow.	51964120	1473276095875	1473276095992	l	76
100122	1092515	I plan to be in the office tomorrow.	I plan to be in the office tomorrow.	51964125	1473276096007	1473276096169	a	65
100122	1092515	I plan to be in the office tomorrow.	I plan to be in the office tomorrow.	51964183	1473276096195	1473276096290	n	78
100122	1092515	I plan to be in the office tomorrow.	I plan to be in the office tomorrow.	51964185	1473276096840	1473276096941	 	32
100122	1092515	I plan to be in the office tomorrow.	I plan to be in the office tomorrow.	51964188	1473276097082	1473276097190	t	84
100122	1092515	I plan to be in the office tomorrow.	I plan to be in the office tomorrow.	51964191	1473276097190	1473276097306	o	79
100122	1092515	I plan to be in the office tomorrow.	I plan to be in the office tomorrow.	51964195	1473276097306	1473276097392	 	32
100122	1092515	I plan to be in the office tomorrow.	I plan to be in the office tomorrow.	51964232	1473276097497	1473276097606	b	66
100122	1092515	I plan to be in the office tomorrow.	I plan to be in the office tomorrow.	51964235	1473276097606	1473276097693	e	69
100122	1092515	I plan to be in the office tomorrow.	I plan to be in the office tomorrow.	51964240	1473276097693	1473276097776	 	32
100122	1092515	I plan to be in the office tomorrow.	I plan to be in the office tomorrow.	51964245	1473276097916	1473276098033	i	73
100122	1092515	I plan to be in the office tomorrow.	I plan to be in the office tomorrow.	51964305	1473276098007	1473276098170	n	78
100122	1092515	I plan to be in the office tomorrow.	I plan to be in the office tomorrow.	51964306	1473276098466	1473276098573	 	32
100122	1092515	I plan to be in the office tomorrow.	I plan to be in the office tomorrow.	51964309	1473276098636	1473276098753	t	84
100122	1092515	I plan to be in the office tomorrow.	I plan to be in the office tomorrow.	51964317	1473276098725	1473276098840	h	72
100122	1092515	I plan to be in the office tomorrow.	I plan to be in the office tomorrow.	51964328	1473276098871	1473276098974	e	69
100122	1092515	I plan to be in the office tomorrow.	I plan to be in the office tomorrow.	51964339	1473276098974	1473276099058	 	32
100122	1092515	I plan to be in the office tomorrow.	I plan to be in the office tomorrow.	51964429	1473276099147	1473276099287	o	79
100122	1092515	I plan to be in the office tomorrow.	I plan to be in the office tomorrow.	51964436	1473276099381	1473276099443	f	70
100122	1092515	I plan to be in the office tomorrow.	I plan to be in the office tomorrow.	51964441	1473276099537	1473276099593	f	70
100122	1092515	I plan to be in the office tomorrow.	I plan to be in the office tomorrow.	51964446	1473276099734	1473276099841	u	85
100122	1092515	I plan to be in the office tomorrow.	I plan to be in the office tomorrow.	51964451	1473276099919	1473276100105	c	67
100122	1092515	I plan to be in the office tomorrow.	I plan to be in the office tomorrow.	51964576	1473276100055	1473276100226	e	69
100122	1092515	I plan to be in the office tomorrow.	I plan to be in the office tomorrow.	51964580	1473276100335	1473276100394	BKSP	8
100122	1092515	I plan to be in the office tomorrow.	I plan to be in the office tomorrow.	51964586	1473276100472	1473276100526	BKSP	8
100122	1092515	I plan to be in the office tomorrow.	I plan to be in the office tomorrow.	51964593	1473276100573	1473276100642	BKSP	8
100122	1092515	I plan to be in the office tomorrow.	I plan to be in the office tomorrow.	51964600	1473276100829	1473276100909	i	73
100122	1092515	I plan to be in the office tomorrow.	I plan to be in the office tomorrow.	51964607	1473276100971	1473276101144	c	67
100122	1092515	I plan to be in the office tomorrow.	I plan to be in the office tomorrow.	51964613	1473276101089	1473276101222	e	69
100122	1092515	I plan to be in the office tomorrow.	I plan to be in the office tomorrow.	51964620	1473276101550	1473276101657	 	32
100122	1092515	I plan to be in the office tomorrow.	I plan to be in the office tomorrow.	51964626	1473276101797	1473276101860	t	84
100122	1092515	I plan to be in the office tomorrow.	I plan to be in the office tomorrow.	51964734	1473276101890	1473276102022	o	79
100122	1092515	I plan to be in the office tomorrow.	I plan to be in the office tomorrow.	51964736	1473276102200	1473276102368	o	79
100122	1092515	I plan to be in the office tomorrow.	I plan to be in the office tomorrow.	51964738	1473276102665	1473276102757	BKSP	8
100122	1092515	I plan to be in the office tomorrow.	I plan to be in the office tomorrow.	51964741	1473276103234	1473276103404	m	77
100122	1092515	I plan to be in the office tomorrow.	I plan to be in the office tomorrow.	51964746	1473276103276	1473276103451	o	79
100122	1092515	I plan to be in the office tomorrow.	I plan to be in the office tomorrow.	51964751	1473276103514	1473276103560	r	82
100122	1092515	I plan to be in the office tomorrow.	I plan to be in the office tomorrow.	51965078	1473276103633	1473276103681	r	82
100122	1092515	I plan to be in the office tomorrow.	I plan to be in the office tomorrow.	51965085	1473276103753	1473276103824	o	79
100122	1092515	I plan to be in the office tomorrow.	I plan to be in the office tomorrow.	51965090	1473276103887	1473276103937	w	87
100122	1092515	I plan to be in the office tomorrow.	I plan to be in the office tomorrow.	51965096	1473276104883	1473276104937	.	190
100122	1092535	Washington was not moving toward a unilateral lifting of the embargo.	Washington was not moving toward a unilateral lifting of the embargo. 	51965339	1473276110742	1473276110921	SHIFT	16
100122	1092535	Washington was not moving toward a unilateral lifting of the embargo.	Washington was not moving toward a unilateral lifting of the embargo. 	51965342	1473276110867	1473276110943	W	87
100122	1092535	Washington was not moving toward a unilateral lifting of the embargo.	Washington was not moving toward a unilateral lifting of the embargo. 	51965345	1473276111052	1473276111225	a	65
100122	1092535	Washington was not moving toward a unilateral lifting of the embargo.	Washington was not moving toward a unilateral lifting of the embargo. 	51965351	1473276111187	1473276111321	s	83
100122	1092535	Washington was not moving toward a unilateral lifting of the embargo.	Washington was not moving toward a unilateral lifting of the embargo. 	51965356	1473276111260	1473276111449	h	72
100122	1092535	Washington was not moving toward a unilateral lifting of the embargo.	Washington was not moving toward a unilateral lifting of the embargo. 	51965564	1473276111404	1473276111475	i	73
100122	1092535	Washington was not moving toward a unilateral lifting of the embargo.	Washington was not moving toward a unilateral lifting of the embargo. 	51965569	1473276111615	1473276111677	t	84
100122	1092535	Washington was not moving toward a unilateral lifting of the embargo.	Washington was not moving toward a unilateral lifting of the embargo. 	51965580	1473276112257	1473276112325	BKSP	8
100122	1092535	Washington was not moving toward a unilateral lifting of the embargo.	Washington was not moving toward a unilateral lifting of the embargo. 	51965586	1473276113736	1473276113824	n	78
100122	1092535	Washington was not moving toward a unilateral lifting of the embargo.	Washington was not moving toward a unilateral lifting of the embargo. 	51965590	1473276113902	1473276113959	g	71
100122	1092535	Washington was not moving toward a unilateral lifting of the embargo.	Washington was not moving toward a unilateral lifting of the embargo. 	51965593	1473276114116	1473276114206	t	84
100122	1092535	Washington was not moving toward a unilateral lifting of the embargo.	Washington was not moving toward a unilateral lifting of the embargo. 	51965597	1473276114206	1473276114423	o	79
100122	1092535	Washington was not moving toward a unilateral lifting of the embargo.	Washington was not moving toward a unilateral lifting of the embargo. 	51965651	1473276114353	1473276114513	n	78
100122	1092535	Washington was not moving toward a unilateral lifting of the embargo.	Washington was not moving toward a unilateral lifting of the embargo. 	51965654	1473276114825	1473276114923	 	32
100122	1092535	Washington was not moving toward a unilateral lifting of the embargo.	Washington was not moving toward a unilateral lifting of the embargo. 	51965656	1473276114954	1473276115073	w	87
100122	1092535	Washington was not moving toward a unilateral lifting of the embargo.	Washington was not moving toward a unilateral lifting of the embargo. 	51965659	1473276115198	1473276115357	a	65
100122	1092535	Washington was not moving toward a unilateral lifting of the embargo.	Washington was not moving toward a unilateral lifting of the embargo. 	51965662	1473276115274	1473276115420	s	83
100122	1092535	Washington was not moving toward a unilateral lifting of the embargo.	Washington was not moving toward a unilateral lifting of the embargo. 	51965667	1473276115451	1473276115557	 	32
100122	1092535	Washington was not moving toward a unilateral lifting of the embargo.	Washington was not moving toward a unilateral lifting of the embargo. 	51965755	1473276116010	1473276116224	n	78
100122	1092535	Washington was not moving toward a unilateral lifting of the embargo.	Washington was not moving toward a unilateral lifting of the embargo. 	51965760	1473276116137	1473276116286	o	79
100122	1092535	Washington was not moving toward a unilateral lifting of the embargo.	Washington was not moving toward a unilateral lifting of the embargo. 	51965763	1473276116286	1473276116390	t	84
100122	1092535	Washington was not moving toward a unilateral lifting of the embargo.	Washington was not moving toward a unilateral lifting of the embargo. 	51965771	1473276116484	1473276116573	 	32
100122	1092535	Washington was not moving toward a unilateral lifting of the embargo.	Washington was not moving toward a unilateral lifting of the embargo. 	51965781	1473276116683	1473276116790	h	72
100122	1092535	Washington was not moving toward a unilateral lifting of the embargo.	Washington was not moving toward a unilateral lifting of the embargo. 	51965990	1473276116790	1473276116905	a	65
100122	1092535	Washington was not moving toward a unilateral lifting of the embargo.	Washington was not moving toward a unilateral lifting of the embargo. 	51965995	1473276117225	1473276117265	BKSP	8
100122	1092535	Washington was not moving toward a unilateral lifting of the embargo.	Washington was not moving toward a unilateral lifting of the embargo. 	51965999	1473276117340	1473276117408	BKSP	8
100122	1092535	Washington was not moving toward a unilateral lifting of the embargo.	Washington was not moving toward a unilateral lifting of the embargo. 	51966001	1473276117611	1473276117793	m	77
100122	1092535	Washington was not moving toward a unilateral lifting of the embargo.	Washington was not moving toward a unilateral lifting of the embargo. 	51966004	1473276117723	1473276117840	o	79
100122	1092535	Washington was not moving toward a unilateral lifting of the embargo.	Washington was not moving toward a unilateral lifting of the embargo. 	51966006	1473276118434	1473276118524	v	86
100122	1092535	Washington was not moving toward a unilateral lifting of the embargo.	Washington was not moving toward a unilateral lifting of the embargo. 	51966010	1473276118539	1473276118725	i	73
100122	1092535	Washington was not moving toward a unilateral lifting of the embargo.	Washington was not moving toward a unilateral lifting of the embargo. 	51966062	1473276118655	1473276118783	n	78
100122	1092535	Washington was not moving toward a unilateral lifting of the embargo.	Washington was not moving toward a unilateral lifting of the embargo. 	51966067	1473276118783	1473276118874	g	71
100122	1092535	Washington was not moving toward a unilateral lifting of the embargo.	Washington was not moving toward a unilateral lifting of the embargo. 	51966073	1473276118936	1473276119007	 	32
100122	1092535	Washington was not moving toward a unilateral lifting of the embargo.	Washington was not moving toward a unilateral lifting of the embargo. 	51966082	1473276119382	1473276119499	t	84
100122	1092535	Washington was not moving toward a unilateral lifting of the embargo.	Washington was not moving toward a unilateral lifting of the embargo. 	51966089	1473276119593	1473276119737	o	79
100122	1092535	Washington was not moving toward a unilateral lifting of the embargo.	Washington was not moving toward a unilateral lifting of the embargo. 	51966095	1473276119799	1473276119890	w	87
100122	1092535	Washington was not moving toward a unilateral lifting of the embargo.	Washington was not moving toward a unilateral lifting of the embargo. 	51966217	1473276120042	1473276120249	a	65
100122	1092535	Washington was not moving toward a unilateral lifting of the embargo.	Washington was not moving toward a unilateral lifting of the embargo. 	51966223	1473276120545	1473276120649	r	82
100122	1092535	Washington was not moving toward a unilateral lifting of the embargo.	Washington was not moving toward a unilateral lifting of the embargo. 	51966230	1473276120774	1473276120890	d	68
100122	1092535	Washington was not moving toward a unilateral lifting of the embargo.	Washington was not moving toward a unilateral lifting of the embargo. 	51966240	1473276121280	1473276121367	 	32
100122	1092535	Washington was not moving toward a unilateral lifting of the embargo.	Washington was not moving toward a unilateral lifting of the embargo. 	51966253	1473276121398	1473276121523	a	65
100122	1092535	Washington was not moving toward a unilateral lifting of the embargo.	Washington was not moving toward a unilateral lifting of the embargo. 	51966422	1473276121550	1473276121656	 	32
100122	1092535	Washington was not moving toward a unilateral lifting of the embargo.	Washington was not moving toward a unilateral lifting of the embargo. 	51966424	1473276121906	1473276122089	u	85
100122	1092535	Washington was not moving toward a unilateral lifting of the embargo.	Washington was not moving toward a unilateral lifting of the embargo. 	51966425	1473276122037	1473276122171	n	78
100122	1092535	Washington was not moving toward a unilateral lifting of the embargo.	Washington was not moving toward a unilateral lifting of the embargo. 	51966429	1473276123409	1473276123492	i	73
100122	1092535	Washington was not moving toward a unilateral lifting of the embargo.	Washington was not moving toward a unilateral lifting of the embargo. 	51966438	1473276123742	1473276123841	l	76
100122	1092535	Washington was not moving toward a unilateral lifting of the embargo.	Washington was not moving toward a unilateral lifting of the embargo. 	51966528	1473276123977	1473276124119	a	65
100122	1092535	Washington was not moving toward a unilateral lifting of the embargo.	Washington was not moving toward a unilateral lifting of the embargo. 	51966536	1473276124590	1473276124705	t	84
100122	1092535	Washington was not moving toward a unilateral lifting of the embargo.	Washington was not moving toward a unilateral lifting of the embargo. 	51966539	1473276124783	1473276124943	e	69
100122	1092535	Washington was not moving toward a unilateral lifting of the embargo.	Washington was not moving toward a unilateral lifting of the embargo. 	51966547	1473276124889	1473276125021	r	82
100122	1092535	Washington was not moving toward a unilateral lifting of the embargo.	Washington was not moving toward a unilateral lifting of the embargo. 	51966555	1473276125131	1473276125254	a	65
100122	1092535	Washington was not moving toward a unilateral lifting of the embargo.	Washington was not moving toward a unilateral lifting of the embargo. 	51966665	1473276125296	1473276125420	l	76
100122	1092535	Washington was not moving toward a unilateral lifting of the embargo.	Washington was not moving toward a unilateral lifting of the embargo. 	51966670	1473276125749	1473276125888	 	32
100122	1092535	Washington was not moving toward a unilateral lifting of the embargo.	Washington was not moving toward a unilateral lifting of the embargo. 	51966675	1473276125935	1473276126133	l	76
100122	1092535	Washington was not moving toward a unilateral lifting of the embargo.	Washington was not moving toward a unilateral lifting of the embargo. 	51966681	1473276126133	1473276126223	i	73
100122	1092535	Washington was not moving toward a unilateral lifting of the embargo.	Washington was not moving toward a unilateral lifting of the embargo. 	51966686	1473276126270	1473276126356	f	70
100122	1092535	Washington was not moving toward a unilateral lifting of the embargo.	Washington was not moving toward a unilateral lifting of the embargo. 	51966761	1473276126460	1473276126521	t	84
100122	1092535	Washington was not moving toward a unilateral lifting of the embargo.	Washington was not moving toward a unilateral lifting of the embargo. 	51966767	1473276126557	1473276126759	i	73
100122	1092535	Washington was not moving toward a unilateral lifting of the embargo.	Washington was not moving toward a unilateral lifting of the embargo. 	51966773	1473276126703	1473276126820	n	78
100122	1092535	Washington was not moving toward a unilateral lifting of the embargo.	Washington was not moving toward a unilateral lifting of the embargo. 	51966777	1473276126851	1473276126925	g	71
100122	1092535	Washington was not moving toward a unilateral lifting of the embargo.	Washington was not moving toward a unilateral lifting of the embargo. 	51966779	1473276127018	1473276127122	 	32
100122	1092535	Washington was not moving toward a unilateral lifting of the embargo.	Washington was not moving toward a unilateral lifting of the embargo. 	51966993	1473276127225	1473276127323	i	73
100122	1092535	Washington was not moving toward a unilateral lifting of the embargo.	Washington was not moving toward a unilateral lifting of the embargo. 	51966997	1473276127417	1473276127506	f	70
100122	1092535	Washington was not moving toward a unilateral lifting of the embargo.	Washington was not moving toward a unilateral lifting of the embargo. 	51967001	1473276127616	1473276127690	 	32
100122	1092535	Washington was not moving toward a unilateral lifting of the embargo.	Washington was not moving toward a unilateral lifting of the embargo. 	51967005	1473276127956	1473276128001	=	187
100122	1092535	Washington was not moving toward a unilateral lifting of the embargo.	Washington was not moving toward a unilateral lifting of the embargo. 	51967008	1473276128087	1473276128137	BKSP	8
100122	1092535	Washington was not moving toward a unilateral lifting of the embargo.	Washington was not moving toward a unilateral lifting of the embargo. 	51967011	1473276128206	1473276128275	BKSP	8
100122	1092535	Washington was not moving toward a unilateral lifting of the embargo.	Washington was not moving toward a unilateral lifting of the embargo. 	51967017	1473276128353	1473276128401	BKSP	8
100122	1092535	Washington was not moving toward a unilateral lifting of the embargo.	Washington was not moving toward a unilateral lifting of the embargo. 	51967025	1473276128472	1473276128526	BKSP	8
100122	1092535	Washington was not moving toward a unilateral lifting of the embargo.	Washington was not moving toward a unilateral lifting of the embargo. 	51967030	1473276129356	1473276129441	o	79
100122	1092535	Washington was not moving toward a unilateral lifting of the embargo.	Washington was not moving toward a unilateral lifting of the embargo. 	51967118	1473276129513	1473276129576	f	70
100122	1092535	Washington was not moving toward a unilateral lifting of the embargo.	Washington was not moving toward a unilateral lifting of the embargo. 	51967124	1473276129623	1473276129706	 	32
100122	1092535	Washington was not moving toward a unilateral lifting of the embargo.	Washington was not moving toward a unilateral lifting of the embargo. 	51967131	1473276129863	1473276129959	h	72
100122	1092535	Washington was not moving toward a unilateral lifting of the embargo.	Washington was not moving toward a unilateral lifting of the embargo. 	51967137	1473276129905	1473276130022	t	84
100122	1092535	Washington was not moving toward a unilateral lifting of the embargo.	Washington was not moving toward a unilateral lifting of the embargo. 	51967143	1473276130370	1473276130409	BKSP	8
100122	1092535	Washington was not moving toward a unilateral lifting of the embargo.	Washington was not moving toward a unilateral lifting of the embargo. 	51967149	1473276130489	1473276130537	BKSP	8
100122	1092535	Washington was not moving toward a unilateral lifting of the embargo.	Washington was not moving toward a unilateral lifting of the embargo. 	51967157	1473276130683	1473276130790	t	84
100122	1092535	Washington was not moving toward a unilateral lifting of the embargo.	Washington was not moving toward a unilateral lifting of the embargo. 	51967260	1473276130790	1473276130890	h	72
100122	1092535	Washington was not moving toward a unilateral lifting of the embargo.	Washington was not moving toward a unilateral lifting of the embargo. 	51967263	1473276130952	1473276131040	e	69
100122	1092535	Washington was not moving toward a unilateral lifting of the embargo.	Washington was not moving toward a unilateral lifting of the embargo. 	51967265	1473276131762	1473276131840	 	32
100122	1092535	Washington was not moving toward a unilateral lifting of the embargo.	Washington was not moving toward a unilateral lifting of the embargo. 	51967269	1473276132090	1473276132174	e	69
100122	1092535	Washington was not moving toward a unilateral lifting of the embargo.	Washington was not moving toward a unilateral lifting of the embargo. 	51967276	1473276132283	1473276132358	m	77
100122	1092535	Washington was not moving toward a unilateral lifting of the embargo.	Washington was not moving toward a unilateral lifting of the embargo. 	51967325	1473276132509	1473276132590	b	66
100122	1092535	Washington was not moving toward a unilateral lifting of the embargo.	Washington was not moving toward a unilateral lifting of the embargo. 	51967330	1473276132621	1473276132841	a	65
100122	1092535	Washington was not moving toward a unilateral lifting of the embargo.	Washington was not moving toward a unilateral lifting of the embargo. 	51967335	1473276132786	1473276132889	r	82
100122	1092535	Washington was not moving toward a unilateral lifting of the embargo.	Washington was not moving toward a unilateral lifting of the embargo. 	51967339	1473276133030	1473276133075	g	71
100122	1092535	Washington was not moving toward a unilateral lifting of the embargo.	Washington was not moving toward a unilateral lifting of the embargo. 	51967344	1473276133138	1473276133209	o	79
100122	1092535	Washington was not moving toward a unilateral lifting of the embargo.	Washington was not moving toward a unilateral lifting of the embargo. 	51967458	1473276133721	1473276133836	.	190
100122	1092535	Washington was not moving toward a unilateral lifting of the embargo.	Washington was not moving toward a unilateral lifting of the embargo. 	51967462	1473276134039	1473276134124	 	32
100122	1092588	Are you getting all the information you need?	Are you getting all the information you need?	51967677	1473276137636	1473276137801	SHIFT	16
100122	1092588	Are you getting all the information you need?	Are you getting all the information you need?	51967683	1473276137745	1473276137872	A	65
100122	1092588	Are you getting all the information you need?	Are you getting all the information you need?	51967689	1473276137966	1473276138129	r	82
100122	1092588	Are you getting all the information you need?	Are you getting all the information you need?	51967696	1473276138089	1473276138185	e	69
100122	1092588	Are you getting all the information you need?	Are you getting all the information you need?	51967701	1473276138141	1473276138270	 	32
100122	1092588	Are you getting all the information you need?	Are you getting all the information you need?	51967705	1473276138364	1473276138440	y	89
100122	1092588	Are you getting all the information you need?	Are you getting all the information you need?	51967800	1473276138452	1473276138571	o	79
100122	1092588	Are you getting all the information you need?	Are you getting all the information you need?	51967804	1473276138571	1473276138657	u	85
100122	1092588	Are you getting all the information you need?	Are you getting all the information you need?	51967809	1473276138704	1473276138822	 	32
100122	1092588	Are you getting all the information you need?	Are you getting all the information you need?	51967816	1473276139217	1473276139336	g	71
100122	1092588	Are you getting all the information you need?	Are you getting all the information you need?	51967822	1473276139336	1473276139505	e	69
100122	1092588	Are you getting all the information you need?	Are you getting all the information you need?	51967843	1473276139470	1473276139525	t	84
100122	1092588	Are you getting all the information you need?	Are you getting all the information you need?	51967844	1473276139572	1473276139657	t	84
100122	1092588	Are you getting all the information you need?	Are you getting all the information you need?	51967847	1473276139736	1473276139785	t	84
100122	1092588	Are you getting all the information you need?	Are you getting all the information you need?	51967850	1473276139823	1473276140001	i	73
100122	1092588	Are you getting all the information you need?	Are you getting all the information you need?	51967855	1473276139953	1473276140074	n	78
100122	1092588	Are you getting all the information you need?	Are you getting all the information you need?	51967918	1473276140008	1473276140085	g	71
100122	1092588	Are you getting all the information you need?	Are you getting all the information you need?	51967926	1473276140210	1473276140306	 	32
100122	1092588	Are you getting all the information you need?	Are you getting all the information you need?	51967933	1473276140478	1473276140617	a	65
100122	1092588	Are you getting all the information you need?	Are you getting all the information you need?	51967939	1473276140588	1473276140642	l	76
100122	1092588	Are you getting all the information you need?	Are you getting all the information you need?	51967944	1473276140736	1473276140791	l	76
100122	1092588	Are you getting all the information you need?	Are you getting all the information you need?	51967946	1473276140979	1473276141090	 	32
100122	1092588	Are you getting all the information you need?	Are you getting all the information you need?	51968120	1473276141304	1473276141353	BKSP	8
100122	1092588	Are you getting all the information you need?	Are you getting all the information you need?	51968124	1473276141421	1473276141492	BKSP	8
100122	1092588	Are you getting all the information you need?	Are you getting all the information you need?	51968126	1473276141554	1473276141609	BKSP	8
100122	1092588	Are you getting all the information you need?	Are you getting all the information you need?	51968129	1473276141672	1473276141721	BKSP	8
100122	1092588	Are you getting all the information you need?	Are you getting all the information you need?	51968133	1473276141788	1473276141825	BKSP	8
100122	1092588	Are you getting all the information you need?	Are you getting all the information you need?	51968141	1473276141919	1473276141953	BKSP	8
100122	1092588	Are you getting all the information you need?	Are you getting all the information you need?	51968147	1473276142023	1473276142073	BKSP	8
100122	1092588	Are you getting all the information you need?	Are you getting all the information you need?	51968158	1473276142123	1473276142176	BKSP	8
100122	1092588	Are you getting all the information you need?	Are you getting all the information you need?	51968166	1473276142254	1473276142325	BKSP	8
100122	1092588	Are you getting all the information you need?	Are you getting all the information you need?	51968173	1473276142842	1473276143017	i	73
100122	1092588	Are you getting all the information you need?	Are you getting all the information you need?	51968178	1473276142970	1473276143073	n	78
100122	1092588	Are you getting all the information you need?	Are you getting all the information you need?	51968182	1473276143073	1473276143157	g	71
100122	1092588	Are you getting all the information you need?	Are you getting all the information you need?	51968190	1473276143157	1473276143256	 	32
100122	1092588	Are you getting all the information you need?	Are you getting all the information you need?	51968197	1473276143303	1473276143417	a	65
100122	1092588	Are you getting all the information you need?	Are you getting all the information you need?	51968187	1473276143389	1473276143442	l	76
100122	1092588	Are you getting all the information you need?	Are you getting all the information you need?	51968194	1473276143520	1473276143591	l	76
100122	1092588	Are you getting all the information you need?	Are you getting all the information you need?	51968202	1473276143626	1473276143769	 	32
100122	1092588	Are you getting all the information you need?	Are you getting all the information you need?	51968208	1473276143801	1473276143906	t	84
100122	1092588	Are you getting all the information you need?	Are you getting all the information you need?	51968212	1473276143906	1473276143974	h	72
100122	1092588	Are you getting all the information you need?	Are you getting all the information you need?	51968215	1473276144021	1473276144106	e	69
100122	1092588	Are you getting all the information you need?	Are you getting all the information you need?	51968251	1473276144106	1473276144191	 	32
100122	1092588	Are you getting all the information you need?	Are you getting all the information you need?	51968257	1473276144284	1473276144441	i	73
100122	1092588	Are you getting all the information you need?	Are you getting all the information you need?	51968264	1473276144374	1473276144503	n	78
100122	1092588	Are you getting all the information you need?	Are you getting all the information you need?	51968269	1473276144582	1473276144694	f	70
100122	1092588	Are you getting all the information you need?	Are you getting all the information you need?	51968280	1473276144694	1473276144790	o	79
100122	1092588	Are you getting all the information you need?	Are you getting all the information you need?	51968398	1473276144913	1473276145068	r	82
100122	1092588	Are you getting all the information you need?	Are you getting all the information you need?	51968401	1473276145130	1473276145239	e	69
100122	1092588	Are you getting all the information you need?	Are you getting all the information you need?	51968404	1473276145614	1473276145657	BKSP	8
100122	1092588	Are you getting all the information you need?	Are you getting all the information you need?	51968408	1473276145861	1473276145924	m	77
100122	1092588	Are you getting all the information you need?	Are you getting all the information you need?	51968412	1473276145924	1473276146039	a	65
100122	1092588	Are you getting all the information you need?	Are you getting all the information you need?	51968417	1473276146102	1473276146222	t	84
100122	1092588	Are you getting all the information you need?	Are you getting all the information you need?	51968535	1473276146222	1473276146407	i	73
100122	1092588	Are you getting all the information you need?	Are you getting all the information you need?	51968547	1473276146339	1473276146534	o	79
100122	1092588	Are you getting all the information you need?	Are you getting all the information you need?	51968555	1473276146581	1473276146704	n	78
100122	1092588	Are you getting all the information you need?	Are you getting all the information you need?	51968564	1473276147001	1473276147106	 	32
100122	1092588	Are you getting all the information you need?	Are you getting all the information you need?	51968570	1473276147811	1473276147985	y	89
100122	1092588	Are you getting all the information you need?	Are you getting all the information you need?	51968609	1473276147952	1473276148191	o	79
100122	1092588	Are you getting all the information you need?	Are you getting all the information you need?	51968613	1473276148118	1473276148237	u	85
100122	1092588	Are you getting all the information you need?	Are you getting all the information you need?	51968621	1473276148378	1473276148487	 	32
100122	1092588	Are you getting all the information you need?	Are you getting all the information you need?	51968626	1473276148565	1473276148655	n	78
100122	1092588	Are you getting all the information you need?	Are you getting all the information you need?	51968631	1473276148718	1473276148790	e	69
100122	1092588	Are you getting all the information you need?	Are you getting all the information you need?	51968635	1473276148868	1473276148925	e	69
100122	1092588	Are you getting all the information you need?	Are you getting all the information you need?	51968885	1473276149029	1473276149124	d	68
100122	1092588	Are you getting all the information you need?	Are you getting all the information you need?	51968901	1473276149562	1473276150587	SHIFT	16
100122	1092588	Are you getting all the information you need?	Are you getting all the information you need?	51968894	1473276150455	1473276150524	?	54
100122	1092615	The wind was strong and gusting.	the wind was strong and gusting. 	51969287	1473276155189	1473276155283	SHIFT	16
100122	1092615	The wind was strong and gusting.	the wind was strong and gusting. 	51969294	1473276155299	1473276155353	t	84
100122	1092615	The wind was strong and gusting.	the wind was strong and gusting. 	51969300	1473276156501	1473276156603	BKSP	8
100122	1092615	The wind was strong and gusting.	the wind was strong and gusting. 	51969307	1473276156853	1473276157009	SHIFT	16
100122	1092615	The wind was strong and gusting.	the wind was strong and gusting. 	51969315	1473276157009	1473276157106	t	84
100122	1092615	The wind was strong and gusting.	the wind was strong and gusting. 	51969320	1473276157199	1473276157296	h	72
100122	1092615	The wind was strong and gusting.	the wind was strong and gusting. 	51969328	1473276157273	1473276157371	e	69
100122	1092615	The wind was strong and gusting.	the wind was strong and gusting. 	51969337	1473276157465	1473276157570	 	32
100122	1092615	The wind was strong and gusting.	the wind was strong and gusting. 	51969368	1473276157570	1473276157717	w	87
100122	1092615	The wind was strong and gusting.	the wind was strong and gusting. 	51969372	1473276157717	1473276157856	i	73
100122	1092615	The wind was strong and gusting.	the wind was strong and gusting. 	51969376	1473276157789	1473276157903	n	78
100122	1092615	The wind was strong and gusting.	the wind was strong and gusting. 	51969379	1473276158137	1473276158273	d	68
100122	1092615	The wind was strong and gusting.	the wind was strong and gusting. 	51969381	1473276158335	1473276158437	 	32
100122	1092615	The wind was strong and gusting.	the wind was strong and gusting. 	51969493	1473276159489	1473276159589	w	87
100122	1092615	The wind was strong and gusting.	the wind was strong and gusting. 	51969494	1473276159714	1473276159857	a	65
100122	1092615	The wind was strong and gusting.	the wind was strong and gusting. 	51969495	1473276159789	1473276159951	s	83
100122	1092615	The wind was strong and gusting.	the wind was strong and gusting. 	51969496	1473276159951	1473276160053	 	32
100122	1092615	The wind was strong and gusting.	the wind was strong and gusting. 	51969499	1473276160085	1473276160187	s	83
100122	1092615	The wind was strong and gusting.	the wind was strong and gusting. 	51969589	1473276160299	1473276160420	t	84
100122	1092615	The wind was strong and gusting.	the wind was strong and gusting. 	51969597	1473276160673	1473276160787	r	82
100122	1092615	The wind was strong and gusting.	the wind was strong and gusting. 	51969602	1473276160927	1473276161140	i	73
100122	1092615	The wind was strong and gusting.	the wind was strong and gusting. 	51969605	1473276161068	1473276161234	n	78
100122	1092615	The wind was strong and gusting.	the wind was strong and gusting. 	51969611	1473276161249	1473276161369	g	71
100122	1092615	The wind was strong and gusting.	the wind was strong and gusting. 	51969741	1473276161583	1473276161623	BKSP	8
100122	1092615	The wind was strong and gusting.	the wind was strong and gusting. 	51969744	1473276161701	1473276161744	BKSP	8
100122	1092615	The wind was strong and gusting.	the wind was strong and gusting. 	51969748	1473276161819	1473276161872	BKSP	8
100122	1092615	The wind was strong and gusting.	the wind was strong and gusting. 	51969752	1473276162061	1473276162264	o	79
100122	1092615	The wind was strong and gusting.	the wind was strong and gusting. 	51969763	1473276162231	1473276162305	n	78
100122	1092615	The wind was strong and gusting.	the wind was strong and gusting. 	51969769	1473276162273	1473276162404	g	71
100122	1092615	The wind was strong and gusting.	the wind was strong and gusting. 	51969774	1473276162732	1473276162854	 	32
100122	1092615	The wind was strong and gusting.	the wind was strong and gusting. 	51969781	1473276163041	1473276163269	a	65
100122	1092615	The wind was strong and gusting.	the wind was strong and gusting. 	51969863	1473276163154	1473276163269	n	78
100122	1092615	The wind was strong and gusting.	the wind was strong and gusting. 	51969866	1473276163300	1473276163419	d	68
100122	1092615	The wind was strong and gusting.	the wind was strong and gusting. 	51969868	1473276163450	1473276163537	 	32
100122	1092615	The wind was strong and gusting.	the wind was strong and gusting. 	51969871	1473276164401	1473276164504	g	71
100122	1092615	The wind was strong and gusting.	the wind was strong and gusting. 	51969877	1473276164504	1473276164588	u	85
100122	1092615	The wind was strong and gusting.	the wind was strong and gusting. 	51969885	1473276164713	1473276164867	s	83
100122	1092615	The wind was strong and gusting.	the wind was strong and gusting. 	51969977	1473276164960	1473276165022	t	84
100122	1092615	The wind was strong and gusting.	the wind was strong and gusting. 	51969982	1473276165053	1473276165256	i	73
100122	1092615	The wind was strong and gusting.	the wind was strong and gusting. 	51969988	1473276165201	1473276165319	n	78
100122	1092615	The wind was strong and gusting.	the wind was strong and gusting. 	51969994	1473276165319	1473276165374	g	71
100122	1092615	The wind was strong and gusting.	the wind was strong and gusting. 	51970000	1473276165986	1473276166103	.	190
100122	1092615	The wind was strong and gusting.	the wind was strong and gusting. 	51970124	1473276166270	1473276166370	 	32
100122	1092639	Would you please send runner to get this?	Would you please send runner to get this?	51970433	1473276171615	1473276171768	SHIFT	16
100122	1092639	Would you please send runner to get this?	Would you please send runner to get this?	51970439	1473276171709	1473276171836	W	87
100122	1092639	Would you please send runner to get this?	Would you please send runner to get this?	51970445	1473276171929	1473276172073	o	79
100122	1092639	Would you please send runner to get this?	Would you please send runner to get this?	51970453	1473276172020	1473276172135	u	85
100122	1092639	Would you please send runner to get this?	Would you please send runner to get this?	51970463	1473276172198	1473276172320	l	76
100122	1092639	Would you please send runner to get this?	Would you please send runner to get this?	51970472	1473276172320	1473276172419	d	68
100122	1092639	Would you please send runner to get this?	Would you please send runner to get this?	51970523	1473276172461	1473276172569	 	32
100122	1092639	Would you please send runner to get this?	Would you please send runner to get this?	51970531	1473276172678	1473276172771	y	89
100122	1092639	Would you please send runner to get this?	Would you please send runner to get this?	51970537	1473276172802	1473276172973	o	79
100122	1092639	Would you please send runner to get this?	Would you please send runner to get this?	51970544	1473276172919	1473276173052	u	85
100122	1092639	Would you please send runner to get this?	Would you please send runner to get this?	51970552	1473276173052	1473276173138	 	32
100122	1092639	Would you please send runner to get this?	Would you please send runner to get this?	51970569	1473276173232	1473276173405	p	80
100122	1092639	Would you please send runner to get this?	Would you please send runner to get this?	51970573	1473276173336	1473276173452	l	76
100122	1092639	Would you please send runner to get this?	Would you please send runner to get this?	51970576	1473276173452	1473276173584	e	69
100122	1092639	Would you please send runner to get this?	Would you please send runner to get this?	51970579	1473276173539	1473276173740	a	65
100122	1092639	Would you please send runner to get this?	Would you please send runner to get this?	51970645	1473276173683	1473276173936	s	83
100122	1092639	Would you please send runner to get this?	Would you please send runner to get this?	51970655	1473276173911	1473276174081	e	69
100122	1092639	Would you please send runner to get this?	Would you please send runner to get this?	51970662	1473276174159	1473276174257	 	32
100122	1092639	Would you please send runner to get this?	Would you please send runner to get this?	51970666	1473276174335	1473276174556	s	83
100122	1092639	Would you please send runner to get this?	Would you please send runner to get this?	51970670	1473276174483	1473276174603	e	69
100122	1092639	Would you please send runner to get this?	Would you please send runner to get this?	51970677	1473276174618	1473276174751	n	78
100122	1092639	Would you please send runner to get this?	Would you please send runner to get this?	51970744	1473276174840	1473276174921	t	84
100122	1092639	Would you please send runner to get this?	Would you please send runner to get this?	51970746	1473276175208	1473276175257	BKSP	8
100122	1092639	Would you please send runner to get this?	Would you please send runner to get this?	51970750	1473276175335	1473276175412	d	68
100122	1092639	Would you please send runner to get this?	Would you please send runner to get this?	51970754	1473276175490	1473276175587	 	32
100122	1092639	Would you please send runner to get this?	Would you please send runner to get this?	51970757	1473276176198	1473276176272	r	82
100122	1092639	Would you please send runner to get this?	Would you please send runner to get this?	51970760	1473276176319	1473276176419	u	85
100122	1092639	Would you please send runner to get this?	Would you please send runner to get this?	51970788	1473276176508	1473276176557	n	78
100122	1092639	Would you please send runner to get this?	Would you please send runner to get this?	51970792	1473276176651	1473276176722	n	78
100122	1092639	Would you please send runner to get this?	Would you please send runner to get this?	51970797	1473276176769	1473276176936	e	69
100122	1092639	Would you please send runner to get this?	Would you please send runner to get this?	51970807	1473276176885	1473276177017	r	82
100122	1092639	Would you please send runner to get this?	Would you please send runner to get this?	51970813	1473276177131	1473276177206	 	32
100122	1092639	Would you please send runner to get this?	Would you please send runner to get this?	51970838	1473276177313	1473276177404	t	84
100122	1092639	Would you please send runner to get this?	Would you please send runner to get this?	51970843	1473276177404	1473276177550	o	79
100122	1092639	Would you please send runner to get this?	Would you please send runner to get this?	51970846	1473276177582	1473276177669	 	32
100122	1092639	Would you please send runner to get this?	Would you please send runner to get this?	51970850	1473276177794	1473276177886	h	72
100122	1092639	Would you please send runner to get this?	Would you please send runner to get this?	51970860	1473276177917	1473276178083	e	69
100122	1092639	Would you please send runner to get this?	Would you please send runner to get this?	51970958	1473276178083	1473276178139	r	84
100122	1092639	Would you please send runner to get this?	Would you please send runner to get this?	51970960	1473276178405	1473276178448	BKSP	8
100122	1092639	Would you please send runner to get this?	Would you please send runner to get this?	51970961	1473276178520	1473276178572	BKSP	8
100122	1092639	Would you please send runner to get this?	Would you please send runner to get this?	51970963	1473276178653	1473276178706	BKSP	8
100122	1092639	Would you please send runner to get this?	Would you please send runner to get this?	51970970	1473276178784	1473276178840	BKSP	8
100122	1092639	Would you please send runner to get this?	Would you please send runner to get this?	51970976	1473276179329	1473276179391	g	71
100122	1092639	Would you please send runner to get this?	Would you please send runner to get this?	51970986	1473276179453	1473276179656	e	69
100122	1092639	Would you please send runner to get this?	Would you please send runner to get this?	51971009	1473276179600	1473276179736	t	84
100122	1092639	Would you please send runner to get this?	Would you please send runner to get this?	51971013	1473276179682	1473276179756	 	32
100122	1092639	Would you please send runner to get this?	Would you please send runner to get this?	51971016	1473276179819	1473276179920	t	84
100122	1092639	Would you please send runner to get this?	Would you please send runner to get this?	51971021	1473276179886	1473276180039	h	72
100122	1092639	Would you please send runner to get this?	Would you please send runner to get this?	51971025	1473276179986	1473276180117	i	73
100122	1092639	Would you please send runner to get this?	Would you please send runner to get this?	51971029	1473276180117	1473276180234	s	83
100122	1092639	Would you please send runner to get this?	Would you please send runner to get this?	51971245	1473276180406	1473276180731	SHIFT	16
100122	1092639	Would you please send runner to get this?	Would you please send runner to get this?	51971238	1473276180562	1473276180684	É	191
100122	1092639	Would you please send runner to get this?	Would you please send runner to get this?	51971252	1473276181012	1473276181104	BKSP	8
100122	1092639	Would you please send runner to get this?	Would you please send runner to get this?	51971259	1473276181261	1473276181455	SHIFT	16
100122	1092639	Would you please send runner to get this?	Would you please send runner to get this?	51971267	1473276181386	1473276181455	%	53
100122	1092639	Would you please send runner to get this?	Would you please send runner to get this?	51971275	1473276181837	1473276181953	BKSP	8
100122	1092639	Would you please send runner to get this?	Would you please send runner to get this?	51971287	1473276182109	1473276182286	SHIFT	16
100122	1092639	Would you please send runner to get this?	Would you please send runner to get this?	51971280	1473276182187	1473276182255	?	54
100122	1092660	Has anyone else heard anything?	Has anyone else heard anything?	51971500	1473276186877	1473276187042	SHIFT	16
100122	1092660	Has anyone else heard anything?	Has anyone else heard anything?	51971504	1473276187017	1473276187089	H	72
100122	1092660	Has anyone else heard anything?	Has anyone else heard anything?	51971507	1473276187136	1473276187336	a	65
100122	1092660	Has anyone else heard anything?	Has anyone else heard anything?	51971512	1473276187283	1473276187434	s	83
100122	1092660	Has anyone else heard anything?	Has anyone else heard anything?	51971514	1473276187481	1473276187571	 	32
100122	1092660	Has anyone else heard anything?	Has anyone else heard anything?	51971517	1473276187759	1473276187869	a	65
100122	1092660	Has anyone else heard anything?	Has anyone else heard anything?	51971540	1473276187869	1473276187938	n	78
100122	1092660	Has anyone else heard anything?	Has anyone else heard anything?	51971542	1473276188048	1473276188121	y	89
100122	1092660	Has anyone else heard anything?	Has anyone else heard anything?	51971544	1473276188230	1473276188420	o	79
100122	1092660	Has anyone else heard anything?	Has anyone else heard anything?	51971546	1473276188336	1473276188482	n	78
100122	1092660	Has anyone else heard anything?	Has anyone else heard anything?	51971548	1473276188482	1473276188570	e	69
100122	1092660	Has anyone else heard anything?	Has anyone else heard anything?	51971617	1473276188721	1473276188852	 	32
100122	1092660	Has anyone else heard anything?	Has anyone else heard anything?	51971620	1473276189167	1473276189270	e	69
100122	1092660	Has anyone else heard anything?	Has anyone else heard anything?	51971624	1473276189302	1473276189432	l	76
100122	1092660	Has anyone else heard anything?	Has anyone else heard anything?	51971626	1473276189402	1473276189604	s	83
100122	1092660	Has anyone else heard anything?	Has anyone else heard anything?	51971656	1473276189534	1473276189709	e	69
100122	1092660	Has anyone else heard anything?	Has anyone else heard anything?	51971660	1473276189771	1473276189839	 	32
100122	1092660	Has anyone else heard anything?	Has anyone else heard anything?	51971663	1473276189980	1473276190070	h	72
100122	1092660	Has anyone else heard anything?	Has anyone else heard anything?	51971666	1473276190116	1473276190232	e	69
100122	1092660	Has anyone else heard anything?	Has anyone else heard anything?	51971669	1473276190189	1473276190400	a	65
100122	1092660	Has anyone else heard anything?	Has anyone else heard anything?	51971700	1473276190349	1473276190443	r	82
100122	1092660	Has anyone else heard anything?	Has anyone else heard anything?	51971703	1473276190599	1473276190701	d	68
100122	1092660	Has anyone else heard anything?	Has anyone else heard anything?	51971706	1473276190810	1473276190906	 	32
100122	1092660	Has anyone else heard anything?	Has anyone else heard anything?	51971712	1473276191063	1473276191169	a	65
100122	1092660	Has anyone else heard anything?	Has anyone else heard anything?	51971718	1473276191169	1473276191239	n	78
100122	1092660	Has anyone else heard anything?	Has anyone else heard anything?	51971722	1473276191349	1473276191436	y	89
100122	1092660	Has anyone else heard anything?	Has anyone else heard anything?	51971750	1473276191528	1473276191588	t	84
100122	1092660	Has anyone else heard anything?	Has anyone else heard anything?	51971753	1473276191651	1473276191792	h	72
100122	1092660	Has anyone else heard anything?	Has anyone else heard anything?	51971759	1473276191768	1473276191972	i	73
100122	1092660	Has anyone else heard anything?	Has anyone else heard anything?	51971764	1473276191916	1473276192035	n	78
100122	1092660	Has anyone else heard anything?	Has anyone else heard anything?	51971769	1473276192035	1473276192136	g	71
100122	1092660	Has anyone else heard anything?	Has anyone else heard anything?	51971935	1473276192303	1473276193008	SHIFT	16
100122	1092660	Has anyone else heard anything?	Has anyone else heard anything?	51971931	1473276192475	1473276192633	É	191
100122	1092660	Has anyone else heard anything?	Has anyone else heard anything?	51971939	1473276193008	1473276193056	SHIFT	16
100122	1092660	Has anyone else heard anything?	Has anyone else heard anything?	51971943	1473276193008	1473276193228	BKSP	8
100122	1092660	Has anyone else heard anything?	Has anyone else heard anything?	51971947	1473276193291	1473276193355	6	54
100122	1092660	Has anyone else heard anything?	Has anyone else heard anything?	51971952	1473276194090	1473276194172	BKSP	8
100122	1092660	Has anyone else heard anything?	Has anyone else heard anything?	51971956	1473276194344	1473276194523	SHIFT	16
100122	1092660	Has anyone else heard anything?	Has anyone else heard anything?	51971962	1473276194469	1473276194523	?	54
100122	1092675	Have I mentioned how much I love Houston traffic?	Have I mentioned how much I love Houston traffic?	51972135	1473276199096	1473276199248	SHIFT	16
100122	1092675	Have I mentioned how much I love Houston traffic?	Have I mentioned how much I love Houston traffic?	51972137	1473276199190	1473276199287	H	72
100122	1092675	Have I mentioned how much I love Houston traffic?	Have I mentioned how much I love Houston traffic?	51972139	1473276199319	1473276199435	a	65
100122	1092675	Have I mentioned how much I love Houston traffic?	Have I mentioned how much I love Houston traffic?	51972141	1473276199482	1473276199569	v	86
100122	1092675	Have I mentioned how much I love Houston traffic?	Have I mentioned how much I love Houston traffic?	51972143	1473276199601	1473276199718	e	69
100122	1092675	Have I mentioned how much I love Houston traffic?	Have I mentioned how much I love Houston traffic?	51972145	1473276199749	1473276199837	 	32
100122	1092675	Have I mentioned how much I love Houston traffic?	Have I mentioned how much I love Houston traffic?	51972187	1473276200082	1473276200255	SHIFT	16
100122	1092675	Have I mentioned how much I love Houston traffic?	Have I mentioned how much I love Houston traffic?	51972189	1473276200207	1473276200302	I	73
100122	1092675	Have I mentioned how much I love Houston traffic?	Have I mentioned how much I love Houston traffic?	51972192	1473276200380	1473276200432	 	32
100122	1092675	Have I mentioned how much I love Houston traffic?	Have I mentioned how much I love Houston traffic?	51972194	1473276200532	1473276200635	m	77
100122	1092675	Have I mentioned how much I love Houston traffic?	Have I mentioned how much I love Houston traffic?	51972197	1473276200635	1473276200736	e	69
100122	1092675	Have I mentioned how much I love Houston traffic?	Have I mentioned how much I love Houston traffic?	51972200	1473276200798	1473276200920	n	78
100122	1092675	Have I mentioned how much I love Houston traffic?	Have I mentioned how much I love Houston traffic?	51972267	1473276200885	1473276200985	t	84
100122	1092675	Have I mentioned how much I love Houston traffic?	Have I mentioned how much I love Houston traffic?	51972268	1473276200985	1473276201171	i	73
100122	1092675	Have I mentioned how much I love Houston traffic?	Have I mentioned how much I love Houston traffic?	51972270	1473276201102	1473276201312	o	79
100122	1092675	Have I mentioned how much I love Houston traffic?	Have I mentioned how much I love Houston traffic?	51972274	1473276201264	1473276201369	n	78
100122	1092675	Have I mentioned how much I love Houston traffic?	Have I mentioned how much I love Houston traffic?	51972277	1473276201650	1473276201706	e	69
100122	1092675	Have I mentioned how much I love Houston traffic?	Have I mentioned how much I love Houston traffic?	51972280	1473276202019	1473276202150	d	68
100122	1092675	Have I mentioned how much I love Houston traffic?	Have I mentioned how much I love Houston traffic?	51972340	1473276202747	1473276202836	 	32
100122	1092675	Have I mentioned how much I love Houston traffic?	Have I mentioned how much I love Houston traffic?	51972342	1473276202992	1473276203120	h	72
100122	1092675	Have I mentioned how much I love Houston traffic?	Have I mentioned how much I love Houston traffic?	51972346	1473276203086	1473276203248	o	79
100122	1092675	Have I mentioned how much I love Houston traffic?	Have I mentioned how much I love Houston traffic?	51972351	1473276203248	1473276203367	w	87
100122	1092675	Have I mentioned how much I love Houston traffic?	Have I mentioned how much I love Houston traffic?	51972353	1473276203445	1473276203615	 	32
100122	1092675	Have I mentioned how much I love Houston traffic?	Have I mentioned how much I love Houston traffic?	51972418	1473276203968	1473276204085	m	77
100122	1092675	Have I mentioned how much I love Houston traffic?	Have I mentioned how much I love Houston traffic?	51972420	1473276204210	1473276204288	u	85
100122	1092675	Have I mentioned how much I love Houston traffic?	Have I mentioned how much I love Houston traffic?	51972422	1473276204366	1473276204453	c	67
100122	1092675	Have I mentioned how much I love Houston traffic?	Have I mentioned how much I love Houston traffic?	51972423	1473276204499	1473276204572	h	72
100122	1092675	Have I mentioned how much I love Houston traffic?	Have I mentioned how much I love Houston traffic?	51972425	1473276204681	1473276204755	 	32
100122	1092675	Have I mentioned how much I love Houston traffic?	Have I mentioned how much I love Houston traffic?	51972540	1473276205365	1473276205453	i	73
100122	1092675	Have I mentioned how much I love Houston traffic?	Have I mentioned how much I love Houston traffic?	51972547	1473276205986	1473276206055	BKSP	8
100122	1092675	Have I mentioned how much I love Houston traffic?	Have I mentioned how much I love Houston traffic?	51972553	1473276206461	1473276206654	SHIFT	16
100122	1092675	Have I mentioned how much I love Houston traffic?	Have I mentioned how much I love Houston traffic?	51972557	1473276206584	1473276206654	I	73
100122	1092675	Have I mentioned how much I love Houston traffic?	Have I mentioned how much I love Houston traffic?	51972560	1473276206717	1473276206803	 	32
100122	1092675	Have I mentioned how much I love Houston traffic?	Have I mentioned how much I love Houston traffic?	51972562	1473276206865	1473276206954	l	76
100122	1092675	Have I mentioned how much I love Houston traffic?	Have I mentioned how much I love Houston traffic?	51972563	1473276207032	1473276207120	o	79
100122	1092675	Have I mentioned how much I love Houston traffic?	Have I mentioned how much I love Houston traffic?	51972596	1473276207145	1473276207321	v	86
100122	1092675	Have I mentioned how much I love Houston traffic?	Have I mentioned how much I love Houston traffic?	51972599	1473276207267	1473276207384	e	69
100122	1092675	Have I mentioned how much I love Houston traffic?	Have I mentioned how much I love Houston traffic?	51972604	1473276207415	1473276207534	 	32
100122	1092675	Have I mentioned how much I love Houston traffic?	Have I mentioned how much I love Houston traffic?	51972610	1473276207835	1473276208000	SHIFT	16
100122	1092675	Have I mentioned how much I love Houston traffic?	Have I mentioned how much I love Houston traffic?	51972612	1473276207945	1473276208020	H	72
100122	1092675	Have I mentioned how much I love Houston traffic?	Have I mentioned how much I love Houston traffic?	51972617	1473276208082	1473276208270	o	79
100122	1092675	Have I mentioned how much I love Houston traffic?	Have I mentioned how much I love Houston traffic?	51972636	1473276208201	1473276208297	u	85
100122	1092675	Have I mentioned how much I love Houston traffic?	Have I mentioned how much I love Houston traffic?	51972638	1473276208360	1473276208529	s	83
100122	1092675	Have I mentioned how much I love Houston traffic?	Have I mentioned how much I love Houston traffic?	51972643	1473276208592	1473276208701	t	84
100122	1092675	Have I mentioned how much I love Houston traffic?	Have I mentioned how much I love Houston traffic?	51972647	1473276208732	1473276208988	o	79
100122	1092675	Have I mentioned how much I love Houston traffic?	Have I mentioned how much I love Houston traffic?	51972808	1473276208917	1473276209033	n	72
100122	1092675	Have I mentioned how much I love Houston traffic?	Have I mentioned how much I love Houston traffic?	51972814	1473276209600	1473276209685	BKSP	8
100122	1092675	Have I mentioned how much I love Houston traffic?	Have I mentioned how much I love Houston traffic?	51972820	1473276209935	1473276210020	BKSP	8
100122	1092675	Have I mentioned how much I love Houston traffic?	Have I mentioned how much I love Houston traffic?	51972826	1473276210521	1473276210587	n	78
100122	1092675	Have I mentioned how much I love Houston traffic?	Have I mentioned how much I love Houston traffic?	51972832	1473276210681	1473276210771	 	32
100122	1092675	Have I mentioned how much I love Houston traffic?	Have I mentioned how much I love Houston traffic?	51972839	1473276210817	1473276211048	SHIFT	16
100122	1092675	Have I mentioned how much I love Houston traffic?	Have I mentioned how much I love Houston traffic?	51972847	1473276211005	1473276211070	T	84
100122	1092675	Have I mentioned how much I love Houston traffic?	Have I mentioned how much I love Houston traffic?	51972853	1473276211584	1473276211637	BKSP	8
100122	1092675	Have I mentioned how much I love Houston traffic?	Have I mentioned how much I love Houston traffic?	51972858	1473276211731	1473276211920	t	84
100122	1092675	Have I mentioned how much I love Houston traffic?	Have I mentioned how much I love Houston traffic?	51972872	1473276211866	1473276211993	r	82
100122	1092675	Have I mentioned how much I love Houston traffic?	Have I mentioned how much I love Houston traffic?	51972876	1473276212146	1473276212283	a	65
100122	1092675	Have I mentioned how much I love Houston traffic?	Have I mentioned how much I love Houston traffic?	51972881	1473276212376	1473276212438	f	70
100122	1092675	Have I mentioned how much I love Houston traffic?	Have I mentioned how much I love Houston traffic?	51972886	1473276212516	1473276212568	f	70
100122	1092675	Have I mentioned how much I love Houston traffic?	Have I mentioned how much I love Houston traffic?	51972892	1473276212634	1473276212766	i	73
100122	1092675	Have I mentioned how much I love Houston traffic?	Have I mentioned how much I love Houston traffic?	51972901	1473276212845	1473276212921	c	67
100122	1092675	Have I mentioned how much I love Houston traffic?	Have I mentioned how much I love Houston traffic?	51973008	1473276213640	1473276213971	SHIFT	16
100122	1092675	Have I mentioned how much I love Houston traffic?	Have I mentioned how much I love Houston traffic?	51973004	1473276213875	1473276213952	?	54
100122	1092692	What information, if any, do we owe him?	What information, if any, do we owe him?	51973162	1473276217768	1473276218024	SHIFT	16
100122	1092692	What information, if any, do we owe him?	What information, if any, do we owe him?	51973168	1473276217975	1473276218115	W	87
100122	1092692	What information, if any, do we owe him?	What information, if any, do we owe him?	51973172	1473276218147	1473276218220	h	72
100122	1092692	What information, if any, do we owe him?	What information, if any, do we owe him?	51973177	1473276218251	1473276218399	a	65
100122	1092692	What information, if any, do we owe him?	What information, if any, do we owe him?	51973182	1473276218399	1473276218454	t	84
100122	1092692	What information, if any, do we owe him?	What information, if any, do we owe him?	51973185	1473276218547	1473276218651	 	32
100122	1092692	What information, if any, do we owe him?	What information, if any, do we owe him?	51973220	1473276219248	1473276219453	i	73
100122	1092692	What information, if any, do we owe him?	What information, if any, do we owe him?	51973223	1473276219372	1473276219516	n	78
100122	1092692	What information, if any, do we owe him?	What information, if any, do we owe him?	51973225	1473276219516	1473276219619	f	70
100122	1092692	What information, if any, do we owe him?	What information, if any, do we owe him?	51973229	1473276219619	1473276219733	o	79
100122	1092692	What information, if any, do we owe him?	What information, if any, do we owe him?	51973234	1473276219733	1473276219834	r	82
100122	1092692	What information, if any, do we owe him?	What information, if any, do we owe him?	51973263	1473276219876	1473276219984	m	77
100122	1092692	What information, if any, do we owe him?	What information, if any, do we owe him?	51973269	1473276220031	1473276220134	a	65
100122	1092692	What information, if any, do we owe him?	What information, if any, do we owe him?	51973274	1473276220165	1473276220272	t	84
100122	1092692	What information, if any, do we owe him?	What information, if any, do we owe him?	51973277	1473276220253	1473276220427	i	73
100122	1092692	What information, if any, do we owe him?	What information, if any, do we owe him?	51973358	1473276220337	1473276220576	o	79
100122	1092692	What information, if any, do we owe him?	What information, if any, do we owe him?	51973364	1473276220551	1473276220684	n	78
100122	1092692	What information, if any, do we owe him?	What information, if any, do we owe him?	51973370	1473276220965	1473276221084	 	32
100122	1092692	What information, if any, do we owe him?	What information, if any, do we owe him?	51973379	1473276221381	1473276221453	BKSP	8
100122	1092692	What information, if any, do we owe him?	What information, if any, do we owe him?	51973388	1473276221859	1473276221940	,	188
100122	1092692	What information, if any, do we owe him?	What information, if any, do we owe him?	51973396	1473276222033	1473276222103	 	32
100122	1092692	What information, if any, do we owe him?	What information, if any, do we owe him?	51973403	1473276222150	1473276222267	i	73
100122	1092692	What information, if any, do we owe him?	What information, if any, do we owe him?	51973419	1473276222340	1473276222448	f	70
100122	1092692	What information, if any, do we owe him?	What information, if any, do we owe him?	51973422	1473276222420	1473276222518	 	32
100122	1092692	What information, if any, do we owe him?	What information, if any, do we owe him?	51973425	1473276222565	1473276222680	a	65
100122	1092692	What information, if any, do we owe him?	What information, if any, do we owe him?	51973428	1473276222653	1473276222720	n	78
100122	1092692	What information, if any, do we owe him?	What information, if any, do we owe him?	51973432	1473276222829	1473276222919	y	89
100122	1092692	What information, if any, do we owe him?	What information, if any, do we owe him?	51973488	1473276223657	1473276223720	,	188
100122	1092692	What information, if any, do we owe him?	What information, if any, do we owe him?	51973490	1473276223829	1473276223918	 	32
100122	1092692	What information, if any, do we owe him?	What information, if any, do we owe him?	51973492	1473276224392	1473276224496	d	68
100122	1092692	What information, if any, do we owe him?	What information, if any, do we owe him?	51973495	1473276224470	1473276224584	o	79
100122	1092692	What information, if any, do we owe him?	What information, if any, do we owe him?	51973498	1473276224662	1473276224736	 	32
100122	1092692	What information, if any, do we owe him?	What information, if any, do we owe him?	51973602	1473276225122	1473276225288	w	87
100122	1092692	What information, if any, do we owe him?	What information, if any, do we owe him?	51973604	1473276225234	1473276225432	e	69
100122	1092692	What information, if any, do we owe him?	What information, if any, do we owe him?	51973607	1473276225398	1473276225486	 	32
100122	1092692	What information, if any, do we owe him?	What information, if any, do we owe him?	51973609	1473276226395	1473276226471	o	79
100122	1092692	What information, if any, do we owe him?	What information, if any, do we owe him?	51973611	1473276226518	1473276226670	w	87
100122	1092692	What information, if any, do we owe him?	What information, if any, do we owe him?	51973688	1473276226618	1473276226807	e	69
100122	1092692	What information, if any, do we owe him?	What information, if any, do we owe him?	51973691	1473276226838	1473276226920	 	32
100122	1092692	What information, if any, do we owe him?	What information, if any, do we owe him?	51973694	1473276226998	1473276227148	h	72
100122	1092692	What information, if any, do we owe him?	What information, if any, do we owe him?	51973695	1473276227148	1473276227236	i	73
100122	1092692	What information, if any, do we owe him?	What information, if any, do we owe him?	51973696	1473276227834	1473276227905	m	77
100122	1092692	What information, if any, do we owe him?	What information, if any, do we owe him?	51973749	1473276228061	1473276228418	SHIFT	16
100122	1092692	What information, if any, do we owe him?	What information, if any, do we owe him?	51973697	1473276228327	1473276228371	?	54
100122	1092704	You have a lot of holes in your plan.	You have a lot of holes in your plan.	51973913	1473276232712	1473276232890	SHIFT	16
100122	1092704	You have a lot of holes in your plan.	You have a lot of holes in your plan.	51973916	1473276232869	1473276232954	Y	89
100122	1092704	You have a lot of holes in your plan.	You have a lot of holes in your plan.	51973919	1473276232954	1473276233185	o	79
100122	1092704	You have a lot of holes in your plan.	You have a lot of holes in your plan.	51973922	1473276233098	1473276233232	u	85
100122	1092704	You have a lot of holes in your plan.	You have a lot of holes in your plan.	51973927	1473276233357	1473276233451	 	32
100122	1092704	You have a lot of holes in your plan.	You have a lot of holes in your plan.	51973932	1473276233498	1473276233617	h	72
100122	1092704	You have a lot of holes in your plan.	You have a lot of holes in your plan.	51973942	1473276233617	1473276233686	a	65
100122	1092704	You have a lot of holes in your plan.	You have a lot of holes in your plan.	51973944	1473276233827	1473276233984	v	86
100122	1092704	You have a lot of holes in your plan.	You have a lot of holes in your plan.	51973946	1473276233939	1473276234066	e	69
100122	1092704	You have a lot of holes in your plan.	You have a lot of holes in your plan.	51973949	1473276234113	1473276234202	 	32
100122	1092704	You have a lot of holes in your plan.	You have a lot of holes in your plan.	51973952	1473276234327	1473276234449	a	65
100122	1092704	You have a lot of holes in your plan.	You have a lot of holes in your plan.	51973985	1473276234449	1473276234520	 	32
100122	1092704	You have a lot of holes in your plan.	You have a lot of holes in your plan.	51973988	1473276234598	1473276234716	l	76
100122	1092704	You have a lot of holes in your plan.	You have a lot of holes in your plan.	51973991	1473276234825	1473276234933	o	79
100122	1092704	You have a lot of holes in your plan.	You have a lot of holes in your plan.	51973996	1473276235014	1473276235101	t	84
100122	1092704	You have a lot of holes in your plan.	You have a lot of holes in your plan.	51974001	1473276235179	1473276235285	 	32
100122	1092704	You have a lot of holes in your plan.	You have a lot of holes in your plan.	51974053	1473276235392	1473276235500	o	79
100122	1092704	You have a lot of holes in your plan.	You have a lot of holes in your plan.	51974055	1473276235532	1473276235634	f	70
100122	1092704	You have a lot of holes in your plan.	You have a lot of holes in your plan.	51974058	1473276235728	1473276235851	 	32
100122	1092704	You have a lot of holes in your plan.	You have a lot of holes in your plan.	51974061	1473276236461	1473276236603	h	72
100122	1092704	You have a lot of holes in your plan.	You have a lot of holes in your plan.	51974098	1473276236551	1473276236677	o	79
100122	1092704	You have a lot of holes in your plan.	You have a lot of holes in your plan.	51974100	1473276236755	1473276236867	l	76
100122	1092704	You have a lot of holes in your plan.	You have a lot of holes in your plan.	51974104	1473276236867	1473276236935	e	69
100122	1092704	You have a lot of holes in your plan.	You have a lot of holes in your plan.	51974108	1473276237060	1473276237153	s	83
100122	1092704	You have a lot of holes in your plan.	You have a lot of holes in your plan.	51974114	1473276237215	1473276237287	 	32
100122	1092704	You have a lot of holes in your plan.	You have a lot of holes in your plan.	51974120	1473276237365	1473276237553	i	73
100122	1092704	You have a lot of holes in your plan.	You have a lot of holes in your plan.	51974177	1473276237498	1473276237595	n	78
100122	1092704	You have a lot of holes in your plan.	You have a lot of holes in your plan.	51974183	1473276237658	1473276237767	 	32
100122	1092704	You have a lot of holes in your plan.	You have a lot of holes in your plan.	51974189	1473276238440	1473276238533	y	89
100122	1092704	You have a lot of holes in your plan.	You have a lot of holes in your plan.	51974193	1473276238533	1473276238648	o	79
100122	1092704	You have a lot of holes in your plan.	You have a lot of holes in your plan.	51974196	1473276238648	1473276238735	u	85
100122	1092704	You have a lot of holes in your plan.	You have a lot of holes in your plan.	51974199	1473276238891	1473276238999	r	82
100122	1092704	You have a lot of holes in your plan.	You have a lot of holes in your plan.	51974210	1473276238999	1473276239085	 	32
100122	1092704	You have a lot of holes in your plan.	You have a lot of holes in your plan.	51974214	1473276239210	1473276239386	p	80
100122	1092704	You have a lot of holes in your plan.	You have a lot of holes in your plan.	51974218	1473276239316	1473276239433	l	76
100122	1092704	You have a lot of holes in your plan.	You have a lot of holes in your plan.	51974222	1473276239433	1473276239571	a	65
100122	1092704	You have a lot of holes in your plan.	You have a lot of holes in your plan.	51974224	1473276239680	1473276239752	n	78
100122	1092704	You have a lot of holes in your plan.	You have a lot of holes in your plan.	51974322	1473276240043	1473276240136	.	190
100122	1092722	I want to thank everyone involved.	I want to thank everyone involved.	51974546	1473276244325	1473276244512	SHIFT	16
100122	1092722	I want to thank everyone involved.	I want to thank everyone involved.	51974554	1473276244466	1473276244536	I	73
100122	1092722	I want to thank everyone involved.	I want to thank everyone involved.	51974561	1473276244693	1473276244785	 	32
100122	1092722	I want to thank everyone involved.	I want to thank everyone involved.	51974567	1473276244847	1473276244919	w	87
100122	1092722	I want to thank everyone involved.	I want to thank everyone involved.	51974571	1473276245013	1473276245117	a	65
100122	1092722	I want to thank everyone involved.	I want to thank everyone involved.	51974577	1473276245148	1473276245250	n	78
100122	1092722	I want to thank everyone involved.	I want to thank everyone involved.	51974613	1473276245276	1473276245384	t	84
100122	1092722	I want to thank everyone involved.	I want to thank everyone involved.	51974617	1473276245431	1473276245533	 	32
100122	1092722	I want to thank everyone involved.	I want to thank everyone involved.	51974621	1473276246024	1473276246087	t	84
100122	1092722	I want to thank everyone involved.	I want to thank everyone involved.	51974626	1473276246087	1473276246245	o	79
100122	1092722	I want to thank everyone involved.	I want to thank everyone involved.	51974633	1473276246245	1473276246349	 	32
100122	1092722	I want to thank everyone involved.	I want to thank everyone involved.	51974682	1473276246349	1473276246465	t	84
100122	1092722	I want to thank everyone involved.	I want to thank everyone involved.	51974687	1473276246497	1473276246602	h	72
100122	1092722	I want to thank everyone involved.	I want to thank everyone involved.	51974692	1473276246665	1473276246844	a	65
100122	1092722	I want to thank everyone involved.	I want to thank everyone involved.	51974696	1473276246844	1473276246966	n	78
100122	1092722	I want to thank everyone involved.	I want to thank everyone involved.	51974699	1473276247032	1473276247195	k	75
100122	1092722	I want to thank everyone involved.	I want to thank everyone involved.	51974781	1473276247584	1473276247668	 	32
100122	1092722	I want to thank everyone involved.	I want to thank everyone involved.	51974788	1473276248011	1473276248113	e	69
100122	1092722	I want to thank everyone involved.	I want to thank everyone involved.	51974792	1473276248271	1473276248384	v	86
100122	1092722	I want to thank everyone involved.	I want to thank everyone involved.	51974801	1473276248367	1473276248586	e	69
100122	1092722	I want to thank everyone involved.	I want to thank everyone involved.	51974857	1473276248514	1473276248669	r	82
100122	1092722	I want to thank everyone involved.	I want to thank everyone involved.	51974859	1473276248612	1473276248685	y	89
100122	1092722	I want to thank everyone involved.	I want to thank everyone involved.	51974862	1473276248779	1473276249017	o	79
100122	1092722	I want to thank everyone involved.	I want to thank everyone involved.	51974866	1473276248915	1473276249103	n	78
100122	1092722	I want to thank everyone involved.	I want to thank everyone involved.	51974867	1473276249049	1473276249150	e	69
100122	1092722	I want to thank everyone involved.	I want to thank everyone involved.	51974870	1473276249291	1473276249400	 	32
100122	1092722	I want to thank everyone involved.	I want to thank everyone involved.	51974917	1473276249582	1473276249683	i	73
100122	1092722	I want to thank everyone involved.	I want to thank everyone involved.	51974918	1473276249683	1473276249829	n	78
100122	1092722	I want to thank everyone involved.	I want to thank everyone involved.	51974920	1473276250111	1473276250201	v	86
100122	1092722	I want to thank everyone involved.	I want to thank everyone involved.	51974924	1473276250232	1473276250286	o	79
100122	1092722	I want to thank everyone involved.	I want to thank everyone involved.	51974926	1473276250396	1473276250485	l	76
100122	1092722	I want to thank everyone involved.	I want to thank everyone involved.	51975091	1473276250547	1473276250666	v	86
100122	1092722	I want to thank everyone involved.	I want to thank everyone involved.	51975095	1473276250744	1473276250834	e	69
100122	1092722	I want to thank everyone involved.	I want to thank everyone involved.	51975099	1473276250928	1473276251002	d	68
100122	1092722	I want to thank everyone involved.	I want to thank everyone involved.	51975103	1473276251957	1473276252016	.	190
100122	1092736	Let's wait until Monday.	Let's wait until Monday.	51975796	1473276259338	1473276259528	SHIFT	16
100122	1092736	Let's wait until Monday.	Let's wait until Monday.	51975799	1473276259494	1473276259615	L	76
100122	1092736	Let's wait until Monday.	Let's wait until Monday.	51975804	1473276259740	1473276259850	e	69
100122	1092736	Let's wait until Monday.	Let's wait until Monday.	51975807	1473276260337	1473276260402	t	84
100122	1092736	Let's wait until Monday.	Let's wait until Monday.	51975809	1473276260715	1473276260786	è	192
100122	1092736	Let's wait until Monday.	Let's wait until Monday.	51975812	1473276261083	1473276261184	s	83
100122	1092736	Let's wait until Monday.	Let's wait until Monday.	51975826	1473276261226	1473276261334	 	32
100122	1092736	Let's wait until Monday.	Let's wait until Monday.	51975831	1473276261459	1473276261536	w	87
100122	1092736	Let's wait until Monday.	Let's wait until Monday.	51975839	1473276261630	1473276261733	a	65
100122	1092736	Let's wait until Monday.	Let's wait until Monday.	51975845	1473276261749	1473276261865	i	73
100122	1092736	Let's wait until Monday.	Let's wait until Monday.	51975850	1473276261880	1473276261968	t	84
100122	1092736	Let's wait until Monday.	Let's wait until Monday.	51975853	1473276262073	1473276262200	 	32
100122	1092736	Let's wait until Monday.	Let's wait until Monday.	51975855	1473276262936	1473276263129	u	85
100122	1092736	Let's wait until Monday.	Let's wait until Monday.	51975858	1473276263080	1473276263214	n	78
100122	1092736	Let's wait until Monday.	Let's wait until Monday.	51975860	1473276263245	1473276263317	t	84
100122	1092736	Let's wait until Monday.	Let's wait until Monday.	51975862	1473276263317	1473276263535	i	73
100122	1092736	Let's wait until Monday.	Let's wait until Monday.	51976304	1473276263463	1473276263624	l	76
100122	1092736	Let's wait until Monday.	Let's wait until Monday.	51976309	1473276263780	1473276263884	 	32
100122	1092736	Let's wait until Monday.	Let's wait until Monday.	51976313	1473276266312	1473276266384	BKSP	8
100122	1092736	Let's wait until Monday.	Let's wait until Monday.	51976321	1473276266872	1473276266919	è	192
100122	1092736	Let's wait until Monday.	Let's wait until Monday.	51976325	1473276267961	1473276268021	BKSP	8
100122	1092736	Let's wait until Monday.	Let's wait until Monday.	51976330	1473276270323	1473276270600	SHIFT	16
100122	1092736	Let's wait until Monday.	Let's wait until Monday.	51976335	1473276270495	1473276270600	'	188
100122	1092736	Let's wait until Monday.	Let's wait until Monday.	51976344	1473276273171	1473276273233	 	32
100122	1092736	Let's wait until Monday.	Let's wait until Monday.	51976352	1473276273924	1473276274151	SHIFT	16
100122	1092736	Let's wait until Monday.	Let's wait until Monday.	51976380	1473276274064	1473276274162	M	77
100122	1092736	Let's wait until Monday.	Let's wait until Monday.	51976382	1473276274271	1473276274470	o	79
100122	1092736	Let's wait until Monday.	Let's wait until Monday.	51976384	1473276274412	1473276274563	n	78
100122	1092736	Let's wait until Monday.	Let's wait until Monday.	51976386	1473276274641	1473276274836	d	68
100122	1092736	Let's wait until Monday.	Let's wait until Monday.	51976388	1473276274780	1473276274912	a	65
100122	1092736	Let's wait until Monday.	Let's wait until Monday.	51976476	1473276274883	1473276274990	y	89
100122	1092736	Let's wait until Monday.	Let's wait until Monday.	51976480	1473276275954	1473276276016	.	190
100122	1092762	Can you help me here?	Can you help me here?	51976645	1473276279760	1473276279903	SHIFT	16
100122	1092762	Can you help me here?	Can you help me here?	51976649	1473276279847	1473276280014	C	67
100122	1092762	Can you help me here?	Can you help me here?	51976653	1473276279917	1473276280092	a	65
100122	1092762	Can you help me here?	Can you help me here?	51976656	1473276280092	1473276280165	n	78
100122	1092762	Can you help me here?	Can you help me here?	51976657	1473276280259	1473276280349	 	32
100122	1092762	Can you help me here?	Can you help me here?	51976658	1473276280489	1473276280583	y	89
100122	1092762	Can you help me here?	Can you help me here?	51976667	1473276280608	1473276280762	o	79
100122	1092762	Can you help me here?	Can you help me here?	51976670	1473276280762	1473276280792	u	85
100122	1092762	Can you help me here?	Can you help me here?	51976673	1473276280818	1473276280914	 	32
100122	1092762	Can you help me here?	Can you help me here?	51976676	1473276281024	1473276281099	h	72
100122	1092762	Can you help me here?	Can you help me here?	51976680	1473276281130	1473276281263	e	69
100122	1092762	Can you help me here?	Can you help me here?	51976786	1473276281263	1473276281348	l	76
100122	1092762	Can you help me here?	Can you help me here?	51976791	1473276281473	1473276281534	o	80
100122	1092762	Can you help me here?	Can you help me here?	51976794	1473276281974	1473276282040	BKSP	8
100122	1092762	Can you help me here?	Can you help me here?	51976798	1473276282399	1473276282482	 	32
100122	1092762	Can you help me here?	Can you help me here?	51976802	1473276282841	1473276282932	m	77
100122	1092762	Can you help me here?	Can you help me here?	51976833	1473276282976	1473276283079	e	69
100122	1092762	Can you help me here?	Can you help me here?	51976836	1473276283050	1473276283132	 	32
100122	1092762	Can you help me here?	Can you help me here?	51976838	1473276283194	1473276283282	h	72
100122	1092762	Can you help me here?	Can you help me here?	51976840	1473276283282	1473276283434	e	69
100122	1092762	Can you help me here?	Can you help me here?	51976917	1473276283392	1473276283535	r	82
100122	1092762	Can you help me here?	Can you help me here?	51976919	1473276283536	1473276283631	e	69
100122	1092762	Can you help me here?	Can you help me here?	51976926	1473276283709	1473276284098	SHIFT	16
100122	1092762	Can you help me here?	Can you help me here?	51976923	1473276284006	1473276284067	?	54
